---
triple:          'arm64-apple-darwin'
binary-path:     './sim'
relocations:
  - { offsetInCU: 0x26, offset: 0x26, size: 0x8, addend: 0x0, symName: __Z8dram_newv, symObjAddr: 0x0, symBinAddr: 0x100003AEC, symSize: 0x23C }
  - { offsetInCU: 0x3F, offset: 0x3F, size: 0x8, addend: 0x0, symName: _DRAM_ID, symObjAddr: 0x8BF4, symBinAddr: 0x100014130, symSize: 0x0 }
  - { offsetInCU: 0x32F9, offset: 0x32F9, size: 0x8, addend: 0x0, symName: __Z8dram_newv, symObjAddr: 0x0, symBinAddr: 0x100003AEC, symSize: 0x23C }
  - { offsetInCU: 0x3333, offset: 0x3333, size: 0x8, addend: 0x0, symName: __Z11dram_insertP4DRAMyjjyh, symObjAddr: 0x23C, symBinAddr: 0x100003D28, symSize: 0xEC }
  - { offsetInCU: 0x33EB, offset: 0x33EB, size: 0x8, addend: 0x0, symName: __Z14dram_parseaddrP4DRAMyPyS1_S1_, symObjAddr: 0x328, symBinAddr: 0x100003E14, symSize: 0x35C }
  - { offsetInCU: 0x35D1, offset: 0x35D1, size: 0x8, addend: 0x0, symName: __Z10dram_cycleP4DRAM, symObjAddr: 0x684, symBinAddr: 0x100004170, symSize: 0x368 }
  - { offsetInCU: 0x364D, offset: 0x364D, size: 0x8, addend: 0x0, symName: __Z17dram_gather_statsP4DRAM, symObjAddr: 0x9EC, symBinAddr: 0x1000044D8, symSize: 0x1E8 }
  - { offsetInCU: 0x36E5, offset: 0x36E5, size: 0x8, addend: 0x0, symName: __Z4log2B7v160006IjENSt3__19enable_ifIXsr3std11is_integralIT_EE5valueEdE4typeES2_, symObjAddr: 0xBD4, symBinAddr: 0x1000046C0, symSize: 0x2C }
  - { offsetInCU: 0x371C, offset: 0x371C, size: 0x8, addend: 0x0, symName: __Z16dram_print_stateP4DRAM, symObjAddr: 0xC00, symBinAddr: 0x1000046EC, symSize: 0x74 }
  - { offsetInCU: 0x3760, offset: 0x3760, size: 0x8, addend: 0x0, symName: __Z16dram_print_statsP4DRAM, symObjAddr: 0xC74, symBinAddr: 0x100004760, symSize: 0x570 }
  - { offsetInCU: 0x26, offset: 0x384C, size: 0x8, addend: 0x0, symName: __Z16dram_channel_newjjj, symObjAddr: 0x0, symBinAddr: 0x100004CD0, symSize: 0xDC }
  - { offsetInCU: 0x3F, offset: 0x3865, size: 0x8, addend: 0x0, symName: _tFAW, symObjAddr: 0x8F0, symBinAddr: 0x100014000, symSize: 0x0 }
  - { offsetInCU: 0x28CF, offset: 0x60F5, size: 0x8, addend: 0x0, symName: __Z16dram_channel_newjjj, symObjAddr: 0x0, symBinAddr: 0x100004CD0, symSize: 0xDC }
  - { offsetInCU: 0x2941, offset: 0x6167, size: 0x8, addend: 0x0, symName: __Z18dram_channel_alertP12DRAM_Channel, symObjAddr: 0xDC, symBinAddr: 0x100004DAC, symSize: 0xF8 }
  - { offsetInCU: 0x2985, offset: 0x61AB, size: 0x8, addend: 0x0, symName: __Z18dram_channel_cycleP12DRAM_Channel, symObjAddr: 0x1D4, symBinAddr: 0x100004EA4, symSize: 0xAC }
  - { offsetInCU: 0x29BB, offset: 0x61E1, size: 0x8, addend: 0x0, symName: __Z27dram_channel_schedule_rdwrqP12DRAM_Channel, symObjAddr: 0x280, symBinAddr: 0x100004F50, symSize: 0x304 }
  - { offsetInCU: 0x2A7D, offset: 0x62A3, size: 0x8, addend: 0x0, symName: __Z19dram_channel_insertP12DRAM_Channelj21DRAM_RequestType_Enumyjjy, symObjAddr: 0x584, symBinAddr: 0x100005254, symSize: 0x9C }
  - { offsetInCU: 0x2AFD, offset: 0x6323, size: 0x8, addend: 0x0, symName: __Z25dram_channel_insert_rdwrqP12DRAM_Channeljjjy21DRAM_RequestType_Enumy, symObjAddr: 0x620, symBinAddr: 0x1000052F0, symSize: 0x11C }
  - { offsetInCU: 0x2B79, offset: 0x639F, size: 0x8, addend: 0x0, symName: __Z27dram_channel_get_rdwr_tokenP12DRAM_Channely, symObjAddr: 0x73C, symBinAddr: 0x10000540C, symSize: 0x60 }
  - { offsetInCU: 0x2BB3, offset: 0x63D9, size: 0x8, addend: 0x0, symName: __Z27dram_channel_get_tfaw_tokenP12DRAM_Channely, symObjAddr: 0x79C, symBinAddr: 0x10000546C, symSize: 0x90 }
  - { offsetInCU: 0x2BED, offset: 0x6413, size: 0x8, addend: 0x0, symName: __Z24dram_channel_print_stateP12DRAM_Channel, symObjAddr: 0x82C, symBinAddr: 0x1000054FC, symSize: 0xC0 }
  - { offsetInCU: 0x26, offset: 0x647D, size: 0x8, addend: 0x0, symName: __Z13dram_bank_newjjj, symObjAddr: 0x0, symBinAddr: 0x1000055BC, symSize: 0xF0 }
  - { offsetInCU: 0x3F, offset: 0x6496, size: 0x8, addend: 0x0, symName: _RFMTH, symObjAddr: 0x9068, symBinAddr: 0x100014138, symSize: 0x0 }
  - { offsetInCU: 0x5B, offset: 0x64B2, size: 0x8, addend: 0x0, symName: _RFMREFTH, symObjAddr: 0x9070, symBinAddr: 0x100014140, symSize: 0x0 }
  - { offsetInCU: 0x70, offset: 0x64C7, size: 0x8, addend: 0x0, symName: _RAAMMT, symObjAddr: 0x16C8, symBinAddr: 0x100014008, symSize: 0x0 }
  - { offsetInCU: 0x28F9, offset: 0x8D50, size: 0x8, addend: 0x0, symName: __Z13dram_bank_newjjj, symObjAddr: 0x0, symBinAddr: 0x1000055BC, symSize: 0xF0 }
  - { offsetInCU: 0x296B, offset: 0x8DC2, size: 0x8, addend: 0x0, symName: __Z15dram_bank_cycleP9DRAM_Bank, symObjAddr: 0xF0, symBinAddr: 0x1000056AC, symSize: 0x3C8 }
  - { offsetInCU: 0x2A2F, offset: 0x8E86, size: 0x8, addend: 0x0, symName: __Z18dram_bank_scheduleP9DRAM_Bank, symObjAddr: 0x4B8, symBinAddr: 0x100005A74, symSize: 0x1A8 }
  - { offsetInCU: 0x2A97, offset: 0x8EEE, size: 0x8, addend: 0x0, symName: __Z17dram_bank_serviceP9DRAM_Bank21DRAM_RequestType_Enumy, symObjAddr: 0x660, symBinAddr: 0x100005C1C, symSize: 0x410 }
  - { offsetInCU: 0x2B6E, offset: 0x8FC5, size: 0x8, addend: 0x0, symName: __Z16dram_bank_removeP9DRAM_Bankj, symObjAddr: 0xA70, symBinAddr: 0x10000602C, symSize: 0x25C }
  - { offsetInCU: 0x2C06, offset: 0x905D, size: 0x8, addend: 0x0, symName: __Z16dram_bank_insertP9DRAM_Bank21DRAM_RequestType_Enumyjjy, symObjAddr: 0xCCC, symBinAddr: 0x100006288, symSize: 0x350 }
  - { offsetInCU: 0x2C86, offset: 0x90DD, size: 0x8, addend: 0x0, symName: __Z17dram_bank_refreshP9DRAM_Banky, symObjAddr: 0x101C, symBinAddr: 0x1000065D8, symSize: 0x160 }
  - { offsetInCU: 0x2CF9, offset: 0x9150, size: 0x8, addend: 0x0, symName: __Z22dram_moat_check_insertP9DRAM_Bankj, symObjAddr: 0x117C, symBinAddr: 0x100006738, symSize: 0x228 }
  - { offsetInCU: 0x2D8A, offset: 0x91E1, size: 0x8, addend: 0x0, symName: __Z15dram_moat_mitigP9DRAM_Bank, symObjAddr: 0x13A4, symBinAddr: 0x100006960, symSize: 0x254 }
  - { offsetInCU: 0x2DFE, offset: 0x9255, size: 0x8, addend: 0x0, symName: __Z15dram_bank_alertP9DRAM_Banky, symObjAddr: 0x15F8, symBinAddr: 0x100006BB4, symSize: 0xD0 }
  - { offsetInCU: 0x26, offset: 0x92D6, size: 0x8, addend: 0x0, symName: __Z9mcore_newP6MemSysP2OSP6MCachePcj, symObjAddr: 0x0, symBinAddr: 0x100006C84, symSize: 0x90 }
  - { offsetInCU: 0x569F, offset: 0xE94F, size: 0x8, addend: 0x0, symName: __Z9mcore_newP6MemSysP2OSP6MCachePcj, symObjAddr: 0x0, symBinAddr: 0x100006C84, symSize: 0x90 }
  - { offsetInCU: 0x5711, offset: 0xE9C1, size: 0x8, addend: 0x0, symName: __Z16mcore_init_traceP5MCore, symObjAddr: 0x90, symBinAddr: 0x100006D14, symSize: 0xC8 }
  - { offsetInCU: 0x5739, offset: 0xE9E9, size: 0x8, addend: 0x0, symName: __Z16mcore_read_traceP5MCore, symObjAddr: 0x158, symBinAddr: 0x100006DDC, symSize: 0x164 }
  - { offsetInCU: 0x5761, offset: 0xEA11, size: 0x8, addend: 0x0, symName: __Z11mcore_cycleP5MCore, symObjAddr: 0x2BC, symBinAddr: 0x100006F40, symSize: 0x584 }
  - { offsetInCU: 0x5807, offset: 0xEAB7, size: 0x8, addend: 0x0, symName: __Z16mcore_rob_retireP5MCore, symObjAddr: 0x840, symBinAddr: 0x1000074C4, symSize: 0x23C }
  - { offsetInCU: 0x587E, offset: 0xEB2E, size: 0x8, addend: 0x0, symName: __Z28mcore_retry_sleeping_requestP5MCore, symObjAddr: 0xA7C, symBinAddr: 0x100007700, symSize: 0x16C }
  - { offsetInCU: 0x58AC, offset: 0xEB5C, size: 0x8, addend: 0x0, symName: __Z16mcore_rob_insertP5MCoreyyy, symObjAddr: 0xBE8, symBinAddr: 0x10000786C, symSize: 0x188 }
  - { offsetInCU: 0x5916, offset: 0xEBC6, size: 0x8, addend: 0x0, symName: __Z17mcore_fread_traceP5MCore, symObjAddr: 0xD70, symBinAddr: 0x1000079F4, symSize: 0xF8 }
  - { offsetInCU: 0x593E, offset: 0xEBEE, size: 0x8, addend: 0x0, symName: __Z17mcore_print_statsP5MCore, symObjAddr: 0xE68, symBinAddr: 0x100007AEC, symSize: 0x308 }
  - { offsetInCU: 0x59BC, offset: 0xEC6C, size: 0x8, addend: 0x0, symName: __Z17mcore_print_stateP5MCore, symObjAddr: 0x1170, symBinAddr: 0x100007DF4, symSize: 0xB4 }
  - { offsetInCU: 0x59F5, offset: 0xECA5, size: 0x8, addend: 0x0, symName: __Z16mcore_rob_wakeupP5MCorejy, symObjAddr: 0x1224, symBinAddr: 0x100007EA8, symSize: 0x154 }
  - { offsetInCU: 0x3A3B, offset: 0x12745, size: 0x8, addend: 0x0, symName: __ZNSt3__119__debug_db_insert_cB7v160006INS_13unordered_mapIyyNS_4hashIyEENS_8equal_toIyEENS_9allocatorINS_4pairIKyyEEEEEEEEvPT_, symObjAddr: 0x6C0, symBinAddr: 0x1000086BC, symSize: 0x10 }
  - { offsetInCU: 0x3A6C, offset: 0x12776, size: 0x8, addend: 0x0, symName: __ZNSt3__130__libcpp_is_constant_evaluatedB7v160006Ev, symObjAddr: 0xFB0, symBinAddr: 0x100008FAC, symSize: 0xC }
  - { offsetInCU: 0x3A89, offset: 0x12793, size: 0x8, addend: 0x0, symName: __ZNSt3__119__libcpp_deallocateB7v160006EPvmm, symObjAddr: 0xFBC, symBinAddr: 0x100008FB8, symSize: 0x30 }
  - { offsetInCU: 0x3AD1, offset: 0x127DB, size: 0x8, addend: 0x0, symName: __ZNSt3__127__do_deallocate_handle_sizeB7v160006IJEEEvPvmDpT_, symObjAddr: 0xFEC, symBinAddr: 0x100008FE8, symSize: 0x28 }
  - { offsetInCU: 0x3B0F, offset: 0x12819, size: 0x8, addend: 0x0, symName: __ZNSt3__124__libcpp_operator_deleteB7v160006IJPvEEEvDpT_, symObjAddr: 0x1014, symBinAddr: 0x100009010, symSize: 0x24 }
  - { offsetInCU: 0x3B44, offset: 0x1284E, size: 0x8, addend: 0x0, symName: __ZNSt3__118__debug_db_erase_cB7v160006INS_12__hash_tableINS_17__hash_value_typeIyyEENS_22__unordered_map_hasherIyS3_NS_4hashIyEENS_8equal_toIyEELb1EEENS_21__unordered_map_equalIyS3_S8_S6_Lb1EEENS_9allocatorIS3_EEEEEEvPT_, symObjAddr: 0x1208, symBinAddr: 0x100009204, symSize: 0x10 }
  - { offsetInCU: 0x3BA8, offset: 0x128B2, size: 0x8, addend: 0x0, symName: __ZNSt3__1neB7v160006ERKNS_21__hash_const_iteratorIPNS_11__hash_nodeINS_17__hash_value_typeIyyEEPvEEEES9_, symObjAddr: 0x1418, symBinAddr: 0x100009414, symSize: 0x34 }
  - { offsetInCU: 0x3BE5, offset: 0x128EF, size: 0x8, addend: 0x0, symName: __ZNSt3__1eqB7v160006ERKNS_21__hash_const_iteratorIPNS_11__hash_nodeINS_17__hash_value_typeIyyEEPvEEEES9_, symObjAddr: 0x1638, symBinAddr: 0x100009634, symSize: 0x30 }
  - { offsetInCU: 0x3C22, offset: 0x1292C, size: 0x8, addend: 0x0, symName: __ZNSt3__116__constrain_hashB7v160006Emm, symObjAddr: 0x16E8, symBinAddr: 0x1000096E4, symSize: 0x98 }
  - { offsetInCU: 0x3C5C, offset: 0x12966, size: 0x8, addend: 0x0, symName: __ZNSt3__1neB7v160006ERKNS_19__hash_map_iteratorINS_15__hash_iteratorIPNS_11__hash_nodeINS_17__hash_value_typeIyyEEPvEEEEEESB_, symObjAddr: 0x1AAC, symBinAddr: 0x100009AA8, symSize: 0x30 }
  - { offsetInCU: 0x3C99, offset: 0x129A3, size: 0x8, addend: 0x0, symName: __ZNSt3__1neB7v160006ERKNS_15__hash_iteratorIPNS_11__hash_nodeINS_17__hash_value_typeIyyEEPvEEEES9_, symObjAddr: 0x2170, symBinAddr: 0x10000A16C, symSize: 0x34 }
  - { offsetInCU: 0x3CD6, offset: 0x129E0, size: 0x8, addend: 0x0, symName: __ZNSt3__1eqB7v160006ERKNS_15__hash_iteratorIPNS_11__hash_nodeINS_17__hash_value_typeIyyEEPvEEEES9_, symObjAddr: 0x21A4, symBinAddr: 0x10000A1A0, symSize: 0x30 }
  - { offsetInCU: 0x3D97, offset: 0x12AA1, size: 0x8, addend: 0x0, symName: __ZNSt3__117__libcpp_allocateB7v160006Emm, symObjAddr: 0x2450, symBinAddr: 0x10000A44C, symSize: 0x28 }
  - { offsetInCU: 0x3DD4, offset: 0x12ADE, size: 0x8, addend: 0x0, symName: __ZNSt3__121__libcpp_operator_newB7v160006IJmEEEPvDpT_, symObjAddr: 0x248C, symBinAddr: 0x10000A488, symSize: 0x24 }
  - { offsetInCU: 0x3E0D, offset: 0x12B17, size: 0x8, addend: 0x0, symName: __ZNSt3__13maxB7v160006ImEERKT_S3_S3_, symObjAddr: 0x2BC0, symBinAddr: 0x10000ABBC, symSize: 0x2C }
  - { offsetInCU: 0x3E50, offset: 0x12B5A, size: 0x8, addend: 0x0, symName: __ZNSt3__116__is_hash_power2B7v160006Em, symObjAddr: 0x2BEC, symBinAddr: 0x10000ABE8, symSize: 0x50 }
  - { offsetInCU: 0x3E7C, offset: 0x12B86, size: 0x8, addend: 0x0, symName: __ZNSt3__116__next_hash_pow2B7v160006Em, symObjAddr: 0x30E8, symBinAddr: 0x10000B0E4, symSize: 0x6C }
  - { offsetInCU: 0x3EA8, offset: 0x12BB2, size: 0x8, addend: 0x0, symName: __ZNSt3__125__debug_db_invalidate_allB7v160006INS_12__hash_tableINS_17__hash_value_typeIyyEENS_22__unordered_map_hasherIyS3_NS_4hashIyEENS_8equal_toIyEELb1EEENS_21__unordered_map_equalIyS3_S8_S6_Lb1EEENS_9allocatorIS3_EEEEEEvPT_, symObjAddr: 0x3154, symBinAddr: 0x10000B150, symSize: 0x10 }
  - { offsetInCU: 0x3EF5, offset: 0x12BFF, size: 0x8, addend: 0x0, symName: __ZNSt3__112__libcpp_clzB7v160006Em, symObjAddr: 0x32E8, symBinAddr: 0x10000B2E4, symSize: 0x1C }
  - { offsetInCU: 0x3F21, offset: 0x12C2B, size: 0x8, addend: 0x0, symName: __ZNSt3__13maxB7v160006ImNS_6__lessImmEEEERKT_S5_S5_T0_, symObjAddr: 0x3304, symBinAddr: 0x10000B300, symSize: 0x54 }
  - { offsetInCU: 0x3FCE, offset: 0x12CD8, size: 0x8, addend: 0x0, symName: __ZSt28__throw_bad_array_new_lengthB7v160006v, symObjAddr: 0x241C, symBinAddr: 0x10000A418, symSize: 0x34 }
  - { offsetInCU: 0x6298, offset: 0x14FA2, size: 0x8, addend: 0x0, symName: __Z6os_newjj, symObjAddr: 0x0, symBinAddr: 0x100007FFC, symSize: 0x118 }
  - { offsetInCU: 0x6342, offset: 0x1504C, size: 0x8, addend: 0x0, symName: __ZN2OSC1Ev, symObjAddr: 0x118, symBinAddr: 0x100008114, symSize: 0x2C }
  - { offsetInCU: 0x636C, offset: 0x15076, size: 0x8, addend: 0x0, symName: __Z13os_vpn_to_pfnP2OSyj, symObjAddr: 0x144, symBinAddr: 0x100008140, symSize: 0xDC }
  - { offsetInCU: 0x63DE, offset: 0x150E8, size: 0x8, addend: 0x0, symName: __ZNKSt3__113unordered_mapIyyNS_4hashIyEENS_8equal_toIyEENS_9allocatorINS_4pairIKyyEEEEE5countB7v160006ERS7_, symObjAddr: 0x220, symBinAddr: 0x10000821C, symSize: 0x2C }
  - { offsetInCU: 0x6411, offset: 0x1511B, size: 0x8, addend: 0x0, symName: __Z22os_get_victim_from_iptP2OS, symObjAddr: 0x24C, symBinAddr: 0x100008248, symSize: 0x13C }
  - { offsetInCU: 0x6475, offset: 0x1517F, size: 0x8, addend: 0x0, symName: __ZNSt3__113unordered_mapIyyNS_4hashIyEENS_8equal_toIyEENS_9allocatorINS_4pairIKyyEEEEEixERS7_, symObjAddr: 0x388, symBinAddr: 0x100008384, symSize: 0x128 }
  - { offsetInCU: 0x64D8, offset: 0x151E2, size: 0x8, addend: 0x0, symName: __Z14os_print_statsP2OS, symObjAddr: 0x4B0, symBinAddr: 0x1000084AC, symSize: 0x9C }
  - { offsetInCU: 0x650E, offset: 0x15218, size: 0x8, addend: 0x0, symName: __Z15os_v2p_lineaddrP2OSyj, symObjAddr: 0x54C, symBinAddr: 0x100008548, symSize: 0x8C }
  - { offsetInCU: 0x658E, offset: 0x15298, size: 0x8, addend: 0x0, symName: __ZN2OSC2Ev, symObjAddr: 0x5D8, symBinAddr: 0x1000085D4, symSize: 0x2C }
  - { offsetInCU: 0x65B8, offset: 0x152C2, size: 0x8, addend: 0x0, symName: __ZNSt3__113unordered_mapIyyNS_4hashIyEENS_8equal_toIyEENS_9allocatorINS_4pairIKyyEEEEEC1B7v160006Ev, symObjAddr: 0x604, symBinAddr: 0x100008600, symSize: 0x2C }
  - { offsetInCU: 0x65E0, offset: 0x152EA, size: 0x8, addend: 0x0, symName: __ZNSt3__113unordered_mapIyyNS_4hashIyEENS_8equal_toIyEENS_9allocatorINS_4pairIKyyEEEEEC2B7v160006Ev, symObjAddr: 0x630, symBinAddr: 0x10000862C, symSize: 0x64 }
  - { offsetInCU: 0x6608, offset: 0x15312, size: 0x8, addend: 0x0, symName: __ZNSt3__112__hash_tableINS_17__hash_value_typeIyyEENS_22__unordered_map_hasherIyS2_NS_4hashIyEENS_8equal_toIyEELb1EEENS_21__unordered_map_equalIyS2_S7_S5_Lb1EEENS_9allocatorIS2_EEEC1Ev, symObjAddr: 0x694, symBinAddr: 0x100008690, symSize: 0x2C }
  - { offsetInCU: 0x6632, offset: 0x1533C, size: 0x8, addend: 0x0, symName: __ZNSt3__112__hash_tableINS_17__hash_value_typeIyyEENS_22__unordered_map_hasherIyS2_NS_4hashIyEENS_8equal_toIyEELb1EEENS_21__unordered_map_equalIyS2_S7_S5_Lb1EEENS_9allocatorIS2_EEED1Ev, symObjAddr: 0x6D0, symBinAddr: 0x1000086CC, symSize: 0x2C }
  - { offsetInCU: 0x665C, offset: 0x15366, size: 0x8, addend: 0x0, symName: __ZNSt3__112__hash_tableINS_17__hash_value_typeIyyEENS_22__unordered_map_hasherIyS2_NS_4hashIyEENS_8equal_toIyEELb1EEENS_21__unordered_map_equalIyS2_S7_S5_Lb1EEENS_9allocatorIS2_EEEC2Ev, symObjAddr: 0x708, symBinAddr: 0x100008704, symSize: 0xA4 }
  - { offsetInCU: 0x6686, offset: 0x15390, size: 0x8, addend: 0x0, symName: __ZNSt3__110unique_ptrIA_PNS_16__hash_node_baseIPNS_11__hash_nodeINS_17__hash_value_typeIyyEEPvEEEENS_25__bucket_list_deallocatorINS_9allocatorIS9_EEEEEC1B7v160006ILb1EvEEv, symObjAddr: 0x7AC, symBinAddr: 0x1000087A8, symSize: 0x2C }
  - { offsetInCU: 0x66B9, offset: 0x153C3, size: 0x8, addend: 0x0, symName: __ZNSt3__117__compressed_pairINS_16__hash_node_baseIPNS_11__hash_nodeINS_17__hash_value_typeIyyEEPvEEEENS_9allocatorIS6_EEEC1B7v160006ILb1EvEEv, symObjAddr: 0x7D8, symBinAddr: 0x1000087D4, symSize: 0x2C }
  - { offsetInCU: 0x66F6, offset: 0x15400, size: 0x8, addend: 0x0, symName: __ZNSt3__117__compressed_pairImNS_22__unordered_map_hasherIyNS_17__hash_value_typeIyyEENS_4hashIyEENS_8equal_toIyEELb1EEEEC1B7v160006IiNS_18__default_init_tagEEEOT_OT0_, symObjAddr: 0x804, symBinAddr: 0x100008800, symSize: 0x3C }
  - { offsetInCU: 0x6751, offset: 0x1545B, size: 0x8, addend: 0x0, symName: __ZNSt3__117__compressed_pairIfNS_21__unordered_map_equalIyNS_17__hash_value_typeIyyEENS_8equal_toIyEENS_4hashIyEELb1EEEEC1B7v160006IfNS_18__default_init_tagEEEOT_OT0_, symObjAddr: 0x840, symBinAddr: 0x10000883C, symSize: 0x3C }
  - { offsetInCU: 0x67A7, offset: 0x154B1, size: 0x8, addend: 0x0, symName: __ZNSt3__110unique_ptrIA_PNS_16__hash_node_baseIPNS_11__hash_nodeINS_17__hash_value_typeIyyEEPvEEEENS_25__bucket_list_deallocatorINS_9allocatorIS9_EEEEED1B7v160006Ev, symObjAddr: 0x87C, symBinAddr: 0x100008878, symSize: 0x2C }
  - { offsetInCU: 0x67CF, offset: 0x154D9, size: 0x8, addend: 0x0, symName: __ZNSt3__110unique_ptrIA_PNS_16__hash_node_baseIPNS_11__hash_nodeINS_17__hash_value_typeIyyEEPvEEEENS_25__bucket_list_deallocatorINS_9allocatorIS9_EEEEEC2B7v160006ILb1EvEEv, symObjAddr: 0x8A8, symBinAddr: 0x1000088A4, symSize: 0x50 }
  - { offsetInCU: 0x6807, offset: 0x15511, size: 0x8, addend: 0x0, symName: __ZNSt3__117__compressed_pairIPPNS_16__hash_node_baseIPNS_11__hash_nodeINS_17__hash_value_typeIyyEEPvEEEENS_25__bucket_list_deallocatorINS_9allocatorIS9_EEEEEC1B7v160006INS_16__value_init_tagESH_EEOT_OT0_, symObjAddr: 0x8F8, symBinAddr: 0x1000088F4, symSize: 0x3C }
  - { offsetInCU: 0x685D, offset: 0x15567, size: 0x8, addend: 0x0, symName: __ZNSt3__117__compressed_pairIPPNS_16__hash_node_baseIPNS_11__hash_nodeINS_17__hash_value_typeIyyEEPvEEEENS_25__bucket_list_deallocatorINS_9allocatorIS9_EEEEEC2B7v160006INS_16__value_init_tagESH_EEOT_OT0_, symObjAddr: 0x934, symBinAddr: 0x100008930, symSize: 0x40 }
  - { offsetInCU: 0x68B3, offset: 0x155BD, size: 0x8, addend: 0x0, symName: __ZNSt3__122__compressed_pair_elemIPPNS_16__hash_node_baseIPNS_11__hash_nodeINS_17__hash_value_typeIyyEEPvEEEELi0ELb0EEC2B7v160006ENS_16__value_init_tagE, symObjAddr: 0x974, symBinAddr: 0x100008970, symSize: 0x18 }
  - { offsetInCU: 0x68E5, offset: 0x155EF, size: 0x8, addend: 0x0, symName: __ZNSt3__122__compressed_pair_elemINS_25__bucket_list_deallocatorINS_9allocatorIPNS_16__hash_node_baseIPNS_11__hash_nodeINS_17__hash_value_typeIyyEEPvEEEEEEEELi1ELb0EEC2B7v160006ENS_16__value_init_tagE, symObjAddr: 0x98C, symBinAddr: 0x100008988, symSize: 0x2C }
  - { offsetInCU: 0x6917, offset: 0x15621, size: 0x8, addend: 0x0, symName: __ZNSt3__125__bucket_list_deallocatorINS_9allocatorIPNS_16__hash_node_baseIPNS_11__hash_nodeINS_17__hash_value_typeIyyEEPvEEEEEEEC1B7v160006Ev, symObjAddr: 0x9B8, symBinAddr: 0x1000089B4, symSize: 0x2C }
  - { offsetInCU: 0x693F, offset: 0x15649, size: 0x8, addend: 0x0, symName: __ZNSt3__125__bucket_list_deallocatorINS_9allocatorIPNS_16__hash_node_baseIPNS_11__hash_nodeINS_17__hash_value_typeIyyEEPvEEEEEEEC2B7v160006Ev, symObjAddr: 0x9E4, symBinAddr: 0x1000089E0, symSize: 0x38 }
  - { offsetInCU: 0x6967, offset: 0x15671, size: 0x8, addend: 0x0, symName: __ZNSt3__117__compressed_pairImNS_9allocatorIPNS_16__hash_node_baseIPNS_11__hash_nodeINS_17__hash_value_typeIyyEEPvEEEEEEEC1B7v160006IiNS_18__default_init_tagEEEOT_OT0_, symObjAddr: 0xA1C, symBinAddr: 0x100008A18, symSize: 0x3C }
  - { offsetInCU: 0x69BD, offset: 0x156C7, size: 0x8, addend: 0x0, symName: __ZNSt3__117__compressed_pairImNS_9allocatorIPNS_16__hash_node_baseIPNS_11__hash_nodeINS_17__hash_value_typeIyyEEPvEEEEEEEC2B7v160006IiNS_18__default_init_tagEEEOT_OT0_, symObjAddr: 0xA58, symBinAddr: 0x100008A54, symSize: 0x40 }
  - { offsetInCU: 0x6A13, offset: 0x1571D, size: 0x8, addend: 0x0, symName: __ZNSt3__122__compressed_pair_elemImLi0ELb0EEC2B7v160006IivEEOT_, symObjAddr: 0xA98, symBinAddr: 0x100008A94, symSize: 0x24 }
  - { offsetInCU: 0x6A53, offset: 0x1575D, size: 0x8, addend: 0x0, symName: __ZNSt3__122__compressed_pair_elemINS_9allocatorIPNS_16__hash_node_baseIPNS_11__hash_nodeINS_17__hash_value_typeIyyEEPvEEEEEELi1ELb1EEC2B7v160006ENS_18__default_init_tagE, symObjAddr: 0xABC, symBinAddr: 0x100008AB8, symSize: 0x2C }
  - { offsetInCU: 0x6A85, offset: 0x1578F, size: 0x8, addend: 0x0, symName: __ZNSt3__19allocatorIPNS_16__hash_node_baseIPNS_11__hash_nodeINS_17__hash_value_typeIyyEEPvEEEEEC2B7v160006Ev, symObjAddr: 0xAE8, symBinAddr: 0x100008AE4, symSize: 0x2C }
  - { offsetInCU: 0x6AAD, offset: 0x157B7, size: 0x8, addend: 0x0, symName: __ZNSt3__116__non_trivial_ifILb1ENS_9allocatorIPNS_16__hash_node_baseIPNS_11__hash_nodeINS_17__hash_value_typeIyyEEPvEEEEEEEC2B7v160006Ev, symObjAddr: 0xB14, symBinAddr: 0x100008B10, symSize: 0x14 }
  - { offsetInCU: 0x6AD5, offset: 0x157DF, size: 0x8, addend: 0x0, symName: __ZNSt3__117__compressed_pairINS_16__hash_node_baseIPNS_11__hash_nodeINS_17__hash_value_typeIyyEEPvEEEENS_9allocatorIS6_EEEC2B7v160006ILb1EvEEv, symObjAddr: 0xB28, symBinAddr: 0x100008B24, symSize: 0x34 }
  - { offsetInCU: 0x6B08, offset: 0x15812, size: 0x8, addend: 0x0, symName: __ZNSt3__122__compressed_pair_elemINS_16__hash_node_baseIPNS_11__hash_nodeINS_17__hash_value_typeIyyEEPvEEEELi0ELb0EEC2B7v160006ENS_16__value_init_tagE, symObjAddr: 0xB5C, symBinAddr: 0x100008B58, symSize: 0x2C }
  - { offsetInCU: 0x6B3A, offset: 0x15844, size: 0x8, addend: 0x0, symName: __ZNSt3__122__compressed_pair_elemINS_9allocatorINS_11__hash_nodeINS_17__hash_value_typeIyyEEPvEEEELi1ELb1EEC2B7v160006ENS_16__value_init_tagE, symObjAddr: 0xB88, symBinAddr: 0x100008B84, symSize: 0x2C }
  - { offsetInCU: 0x6B6C, offset: 0x15876, size: 0x8, addend: 0x0, symName: __ZNSt3__116__hash_node_baseIPNS_11__hash_nodeINS_17__hash_value_typeIyyEEPvEEEC1B7v160006Ev, symObjAddr: 0xBB4, symBinAddr: 0x100008BB0, symSize: 0x2C }
  - { offsetInCU: 0x6B94, offset: 0x1589E, size: 0x8, addend: 0x0, symName: __ZNSt3__116__hash_node_baseIPNS_11__hash_nodeINS_17__hash_value_typeIyyEEPvEEEC2B7v160006Ev, symObjAddr: 0xBE0, symBinAddr: 0x100008BDC, symSize: 0x18 }
  - { offsetInCU: 0x6BBC, offset: 0x158C6, size: 0x8, addend: 0x0, symName: __ZNSt3__19allocatorINS_11__hash_nodeINS_17__hash_value_typeIyyEEPvEEEC2B7v160006Ev, symObjAddr: 0xBF8, symBinAddr: 0x100008BF4, symSize: 0x2C }
  - { offsetInCU: 0x6BE4, offset: 0x158EE, size: 0x8, addend: 0x0, symName: __ZNSt3__116__non_trivial_ifILb1ENS_9allocatorINS_11__hash_nodeINS_17__hash_value_typeIyyEEPvEEEEEC2B7v160006Ev, symObjAddr: 0xC24, symBinAddr: 0x100008C20, symSize: 0x14 }
  - { offsetInCU: 0x6C0C, offset: 0x15916, size: 0x8, addend: 0x0, symName: __ZNSt3__117__compressed_pairImNS_22__unordered_map_hasherIyNS_17__hash_value_typeIyyEENS_4hashIyEENS_8equal_toIyEELb1EEEEC2B7v160006IiNS_18__default_init_tagEEEOT_OT0_, symObjAddr: 0xC38, symBinAddr: 0x100008C34, symSize: 0x40 }
  - { offsetInCU: 0x6C62, offset: 0x1596C, size: 0x8, addend: 0x0, symName: __ZNSt3__122__compressed_pair_elemINS_22__unordered_map_hasherIyNS_17__hash_value_typeIyyEENS_4hashIyEENS_8equal_toIyEELb1EEELi1ELb1EEC2B7v160006ENS_18__default_init_tagE, symObjAddr: 0xC78, symBinAddr: 0x100008C74, symSize: 0x2C }
  - { offsetInCU: 0x6C94, offset: 0x1599E, size: 0x8, addend: 0x0, symName: __ZNSt3__122__unordered_map_hasherIyNS_17__hash_value_typeIyyEENS_4hashIyEENS_8equal_toIyEELb1EEC2B7v160006Ev, symObjAddr: 0xCA4, symBinAddr: 0x100008CA0, symSize: 0x14 }
  - { offsetInCU: 0x6CBC, offset: 0x159C6, size: 0x8, addend: 0x0, symName: __ZNSt3__117__compressed_pairIfNS_21__unordered_map_equalIyNS_17__hash_value_typeIyyEENS_8equal_toIyEENS_4hashIyEELb1EEEEC2B7v160006IfNS_18__default_init_tagEEEOT_OT0_, symObjAddr: 0xCB8, symBinAddr: 0x100008CB4, symSize: 0x40 }
  - { offsetInCU: 0x6D12, offset: 0x15A1C, size: 0x8, addend: 0x0, symName: __ZNSt3__122__compressed_pair_elemIfLi0ELb0EEC2B7v160006IfvEEOT_, symObjAddr: 0xCF8, symBinAddr: 0x100008CF4, symSize: 0x24 }
  - { offsetInCU: 0x6D52, offset: 0x15A5C, size: 0x8, addend: 0x0, symName: __ZNSt3__122__compressed_pair_elemINS_21__unordered_map_equalIyNS_17__hash_value_typeIyyEENS_8equal_toIyEENS_4hashIyEELb1EEELi1ELb1EEC2B7v160006ENS_18__default_init_tagE, symObjAddr: 0xD1C, symBinAddr: 0x100008D18, symSize: 0x2C }
  - { offsetInCU: 0x6D84, offset: 0x15A8E, size: 0x8, addend: 0x0, symName: __ZNSt3__121__unordered_map_equalIyNS_17__hash_value_typeIyyEENS_8equal_toIyEENS_4hashIyEELb1EEC2B7v160006Ev, symObjAddr: 0xD48, symBinAddr: 0x100008D44, symSize: 0x14 }
  - { offsetInCU: 0x6DAC, offset: 0x15AB6, size: 0x8, addend: 0x0, symName: __ZNSt3__110unique_ptrIA_PNS_16__hash_node_baseIPNS_11__hash_nodeINS_17__hash_value_typeIyyEEPvEEEENS_25__bucket_list_deallocatorINS_9allocatorIS9_EEEEED2B7v160006Ev, symObjAddr: 0xD5C, symBinAddr: 0x100008D58, symSize: 0x30 }
  - { offsetInCU: 0x6DD4, offset: 0x15ADE, size: 0x8, addend: 0x0, symName: __ZNSt3__110unique_ptrIA_PNS_16__hash_node_baseIPNS_11__hash_nodeINS_17__hash_value_typeIyyEEPvEEEENS_25__bucket_list_deallocatorINS_9allocatorIS9_EEEEE5resetB7v160006EDn, symObjAddr: 0xD8C, symBinAddr: 0x100008D88, symSize: 0x6C }
  - { offsetInCU: 0x6E12, offset: 0x15B1C, size: 0x8, addend: 0x0, symName: __ZNSt3__117__compressed_pairIPPNS_16__hash_node_baseIPNS_11__hash_nodeINS_17__hash_value_typeIyyEEPvEEEENS_25__bucket_list_deallocatorINS_9allocatorIS9_EEEEE5firstB7v160006Ev, symObjAddr: 0xDF8, symBinAddr: 0x100008DF4, symSize: 0x24 }
  - { offsetInCU: 0x6E36, offset: 0x15B40, size: 0x8, addend: 0x0, symName: __ZNSt3__117__compressed_pairIPPNS_16__hash_node_baseIPNS_11__hash_nodeINS_17__hash_value_typeIyyEEPvEEEENS_25__bucket_list_deallocatorINS_9allocatorIS9_EEEEE6secondB7v160006Ev, symObjAddr: 0xE1C, symBinAddr: 0x100008E18, symSize: 0x28 }
  - { offsetInCU: 0x6E5A, offset: 0x15B64, size: 0x8, addend: 0x0, symName: __ZNSt3__125__bucket_list_deallocatorINS_9allocatorIPNS_16__hash_node_baseIPNS_11__hash_nodeINS_17__hash_value_typeIyyEEPvEEEEEEEclB7v160006EPSA_, symObjAddr: 0xE44, symBinAddr: 0x100008E40, symSize: 0x58 }
  - { offsetInCU: 0x6E8D, offset: 0x15B97, size: 0x8, addend: 0x0, symName: __ZNSt3__122__compressed_pair_elemIPPNS_16__hash_node_baseIPNS_11__hash_nodeINS_17__hash_value_typeIyyEEPvEEEELi0ELb0EE5__getB7v160006Ev, symObjAddr: 0xE9C, symBinAddr: 0x100008E98, symSize: 0x14 }
  - { offsetInCU: 0x6EB1, offset: 0x15BBB, size: 0x8, addend: 0x0, symName: __ZNSt3__122__compressed_pair_elemINS_25__bucket_list_deallocatorINS_9allocatorIPNS_16__hash_node_baseIPNS_11__hash_nodeINS_17__hash_value_typeIyyEEPvEEEEEEEELi1ELb0EE5__getB7v160006Ev, symObjAddr: 0xEB0, symBinAddr: 0x100008EAC, symSize: 0x14 }
  - { offsetInCU: 0x6ED5, offset: 0x15BDF, size: 0x8, addend: 0x0, symName: __ZNSt3__116allocator_traitsINS_9allocatorIPNS_16__hash_node_baseIPNS_11__hash_nodeINS_17__hash_value_typeIyyEEPvEEEEEEE10deallocateB7v160006ERSB_PSA_m, symObjAddr: 0xEC4, symBinAddr: 0x100008EC0, symSize: 0x34 }
  - { offsetInCU: 0x6F16, offset: 0x15C20, size: 0x8, addend: 0x0, symName: __ZNSt3__125__bucket_list_deallocatorINS_9allocatorIPNS_16__hash_node_baseIPNS_11__hash_nodeINS_17__hash_value_typeIyyEEPvEEEEEEE7__allocB7v160006Ev, symObjAddr: 0xEF8, symBinAddr: 0x100008EF4, symSize: 0x24 }
  - { offsetInCU: 0x6F3A, offset: 0x15C44, size: 0x8, addend: 0x0, symName: __ZNSt3__125__bucket_list_deallocatorINS_9allocatorIPNS_16__hash_node_baseIPNS_11__hash_nodeINS_17__hash_value_typeIyyEEPvEEEEEEE4sizeB7v160006Ev, symObjAddr: 0xF1C, symBinAddr: 0x100008F18, symSize: 0x24 }
  - { offsetInCU: 0x6F5E, offset: 0x15C68, size: 0x8, addend: 0x0, symName: __ZNSt3__19allocatorIPNS_16__hash_node_baseIPNS_11__hash_nodeINS_17__hash_value_typeIyyEEPvEEEEE10deallocateB7v160006EPS9_m, symObjAddr: 0xF40, symBinAddr: 0x100008F3C, symSize: 0x70 }
  - { offsetInCU: 0x6F9E, offset: 0x15CA8, size: 0x8, addend: 0x0, symName: __ZNSt3__117__compressed_pairImNS_9allocatorIPNS_16__hash_node_baseIPNS_11__hash_nodeINS_17__hash_value_typeIyyEEPvEEEEEEE6secondB7v160006Ev, symObjAddr: 0x1038, symBinAddr: 0x100009034, symSize: 0x24 }
  - { offsetInCU: 0x6FC2, offset: 0x15CCC, size: 0x8, addend: 0x0, symName: __ZNSt3__122__compressed_pair_elemINS_9allocatorIPNS_16__hash_node_baseIPNS_11__hash_nodeINS_17__hash_value_typeIyyEEPvEEEEEELi1ELb1EE5__getB7v160006Ev, symObjAddr: 0x105C, symBinAddr: 0x100009058, symSize: 0x14 }
  - { offsetInCU: 0x6FE6, offset: 0x15CF0, size: 0x8, addend: 0x0, symName: __ZNSt3__117__compressed_pairImNS_9allocatorIPNS_16__hash_node_baseIPNS_11__hash_nodeINS_17__hash_value_typeIyyEEPvEEEEEEE5firstB7v160006Ev, symObjAddr: 0x1070, symBinAddr: 0x10000906C, symSize: 0x24 }
  - { offsetInCU: 0x700A, offset: 0x15D14, size: 0x8, addend: 0x0, symName: __ZNSt3__122__compressed_pair_elemImLi0ELb0EE5__getB7v160006Ev, symObjAddr: 0x1094, symBinAddr: 0x100009090, symSize: 0x14 }
  - { offsetInCU: 0x702E, offset: 0x15D38, size: 0x8, addend: 0x0, symName: __ZNSt3__112__hash_tableINS_17__hash_value_typeIyyEENS_22__unordered_map_hasherIyS2_NS_4hashIyEENS_8equal_toIyEELb1EEENS_21__unordered_map_equalIyS2_S7_S5_Lb1EEENS_9allocatorIS2_EEED2Ev, symObjAddr: 0x10A8, symBinAddr: 0x1000090A4, symSize: 0x80 }
  - { offsetInCU: 0x7058, offset: 0x15D62, size: 0x8, addend: 0x0, symName: __ZNSt3__112__hash_tableINS_17__hash_value_typeIyyEENS_22__unordered_map_hasherIyS2_NS_4hashIyEENS_8equal_toIyEELb1EEENS_21__unordered_map_equalIyS2_S7_S5_Lb1EEENS_9allocatorIS2_EEE17__deallocate_nodeEPNS_16__hash_node_baseIPNS_11__hash_nodeIS2_PvEEEE, symObjAddr: 0x1128, symBinAddr: 0x100009124, symSize: 0xBC }
  - { offsetInCU: 0x70C0, offset: 0x15DCA, size: 0x8, addend: 0x0, symName: __ZNSt3__117__compressed_pairINS_16__hash_node_baseIPNS_11__hash_nodeINS_17__hash_value_typeIyyEEPvEEEENS_9allocatorIS6_EEE5firstB7v160006Ev, symObjAddr: 0x11E4, symBinAddr: 0x1000091E0, symSize: 0x24 }
  - { offsetInCU: 0x70E4, offset: 0x15DEE, size: 0x8, addend: 0x0, symName: __ZNSt3__112__hash_tableINS_17__hash_value_typeIyyEENS_22__unordered_map_hasherIyS2_NS_4hashIyEENS_8equal_toIyEELb1EEENS_21__unordered_map_equalIyS2_S7_S5_Lb1EEENS_9allocatorIS2_EEE12__node_allocB7v160006Ev, symObjAddr: 0x1218, symBinAddr: 0x100009214, symSize: 0x28 }
  - { offsetInCU: 0x7108, offset: 0x15E12, size: 0x8, addend: 0x0, symName: __ZNSt3__116__hash_node_baseIPNS_11__hash_nodeINS_17__hash_value_typeIyyEEPvEEE8__upcastB7v160006Ev, symObjAddr: 0x1240, symBinAddr: 0x10000923C, symSize: 0x24 }
  - { offsetInCU: 0x712C, offset: 0x15E36, size: 0x8, addend: 0x0, symName: __ZNSt3__116allocator_traitsINS_9allocatorINS_11__hash_nodeINS_17__hash_value_typeIyyEEPvEEEEE7destroyB7v160006INS_4pairIKyyEEvvEEvRS7_PT_, symObjAddr: 0x1264, symBinAddr: 0x100009260, symSize: 0x14 }
  - { offsetInCU: 0x7165, offset: 0x15E6F, size: 0x8, addend: 0x0, symName: __ZNSt3__122__hash_key_value_typesINS_17__hash_value_typeIyyEEE9__get_ptrB7v160006ERS2_, symObjAddr: 0x1278, symBinAddr: 0x100009274, symSize: 0x24 }
  - { offsetInCU: 0x7187, offset: 0x15E91, size: 0x8, addend: 0x0, symName: __ZNSt3__116allocator_traitsINS_9allocatorINS_11__hash_nodeINS_17__hash_value_typeIyyEEPvEEEEE10deallocateB7v160006ERS7_PS6_m, symObjAddr: 0x129C, symBinAddr: 0x100009298, symSize: 0x34 }
  - { offsetInCU: 0x71C8, offset: 0x15ED2, size: 0x8, addend: 0x0, symName: __ZNSt3__117__compressed_pairINS_16__hash_node_baseIPNS_11__hash_nodeINS_17__hash_value_typeIyyEEPvEEEENS_9allocatorIS6_EEE6secondB7v160006Ev, symObjAddr: 0x12D0, symBinAddr: 0x1000092CC, symSize: 0x24 }
  - { offsetInCU: 0x71EC, offset: 0x15EF6, size: 0x8, addend: 0x0, symName: __ZNSt3__122__compressed_pair_elemINS_9allocatorINS_11__hash_nodeINS_17__hash_value_typeIyyEEPvEEEELi1ELb1EE5__getB7v160006Ev, symObjAddr: 0x12F4, symBinAddr: 0x1000092F0, symSize: 0x14 }
  - { offsetInCU: 0x7210, offset: 0x15F1A, size: 0x8, addend: 0x0, symName: __ZNSt3__114pointer_traitsIPNS_16__hash_node_baseIPNS_11__hash_nodeINS_17__hash_value_typeIyyEEPvEEEEE10pointer_toB7v160006ERS8_, symObjAddr: 0x1308, symBinAddr: 0x100009304, symSize: 0x14 }
  - { offsetInCU: 0x7232, offset: 0x15F3C, size: 0x8, addend: 0x0, symName: __ZNSt3__117__hash_value_typeIyyE11__get_valueB7v160006Ev, symObjAddr: 0x131C, symBinAddr: 0x100009318, symSize: 0x14 }
  - { offsetInCU: 0x7256, offset: 0x15F60, size: 0x8, addend: 0x0, symName: __ZNSt3__19allocatorINS_11__hash_nodeINS_17__hash_value_typeIyyEEPvEEE10deallocateB7v160006EPS5_m, symObjAddr: 0x1330, symBinAddr: 0x10000932C, symSize: 0x70 }
  - { offsetInCU: 0x7296, offset: 0x15FA0, size: 0x8, addend: 0x0, symName: __ZNSt3__122__compressed_pair_elemINS_16__hash_node_baseIPNS_11__hash_nodeINS_17__hash_value_typeIyyEEPvEEEELi0ELb0EE5__getB7v160006Ev, symObjAddr: 0x13A0, symBinAddr: 0x10000939C, symSize: 0x14 }
  - { offsetInCU: 0x72BA, offset: 0x15FC4, size: 0x8, addend: 0x0, symName: __ZNKSt3__112__hash_tableINS_17__hash_value_typeIyyEENS_22__unordered_map_hasherIyS2_NS_4hashIyEENS_8equal_toIyEELb1EEENS_21__unordered_map_equalIyS2_S7_S5_Lb1EEENS_9allocatorIS2_EEE14__count_uniqueIyEEmRKT_, symObjAddr: 0x13B4, symBinAddr: 0x1000093B0, symSize: 0x64 }
  - { offsetInCU: 0x72F8, offset: 0x16002, size: 0x8, addend: 0x0, symName: __ZNKSt3__112__hash_tableINS_17__hash_value_typeIyyEENS_22__unordered_map_hasherIyS2_NS_4hashIyEENS_8equal_toIyEELb1EEENS_21__unordered_map_equalIyS2_S7_S5_Lb1EEENS_9allocatorIS2_EEE4findIyEENS_21__hash_const_iteratorIPNS_11__hash_nodeIS2_PvEEEERKT_, symObjAddr: 0x144C, symBinAddr: 0x100009448, symSize: 0x1BC }
  - { offsetInCU: 0x7380, offset: 0x1608A, size: 0x8, addend: 0x0, symName: __ZNKSt3__112__hash_tableINS_17__hash_value_typeIyyEENS_22__unordered_map_hasherIyS2_NS_4hashIyEENS_8equal_toIyEELb1EEENS_21__unordered_map_equalIyS2_S7_S5_Lb1EEENS_9allocatorIS2_EEE3endEv, symObjAddr: 0x1608, symBinAddr: 0x100009604, symSize: 0x30 }
  - { offsetInCU: 0x73A6, offset: 0x160B0, size: 0x8, addend: 0x0, symName: __ZNKSt3__112__hash_tableINS_17__hash_value_typeIyyEENS_22__unordered_map_hasherIyS2_NS_4hashIyEENS_8equal_toIyEELb1EEENS_21__unordered_map_equalIyS2_S7_S5_Lb1EEENS_9allocatorIS2_EEE13hash_functionB7v160006Ev, symObjAddr: 0x1668, symBinAddr: 0x100009664, symSize: 0x28 }
  - { offsetInCU: 0x73CA, offset: 0x160D4, size: 0x8, addend: 0x0, symName: __ZNKSt3__122__unordered_map_hasherIyNS_17__hash_value_typeIyyEENS_4hashIyEENS_8equal_toIyEELb1EEclB7v160006ERKy, symObjAddr: 0x1690, symBinAddr: 0x10000968C, symSize: 0x30 }
  - { offsetInCU: 0x73FD, offset: 0x16107, size: 0x8, addend: 0x0, symName: __ZNKSt3__112__hash_tableINS_17__hash_value_typeIyyEENS_22__unordered_map_hasherIyS2_NS_4hashIyEENS_8equal_toIyEELb1EEENS_21__unordered_map_equalIyS2_S7_S5_Lb1EEENS_9allocatorIS2_EEE12bucket_countB7v160006Ev, symObjAddr: 0x16C0, symBinAddr: 0x1000096BC, symSize: 0x28 }
  - { offsetInCU: 0x7421, offset: 0x1612B, size: 0x8, addend: 0x0, symName: __ZNKSt3__110unique_ptrIA_PNS_16__hash_node_baseIPNS_11__hash_nodeINS_17__hash_value_typeIyyEEPvEEEENS_25__bucket_list_deallocatorINS_9allocatorIS9_EEEEEixB7v160006Em, symObjAddr: 0x1780, symBinAddr: 0x10000977C, symSize: 0x34 }
  - { offsetInCU: 0x7454, offset: 0x1615E, size: 0x8, addend: 0x0, symName: __ZNKSt3__116__hash_node_baseIPNS_11__hash_nodeINS_17__hash_value_typeIyyEEPvEEE6__hashB7v160006Ev, symObjAddr: 0x17B4, symBinAddr: 0x1000097B0, symSize: 0x18 }
  - { offsetInCU: 0x7478, offset: 0x16182, size: 0x8, addend: 0x0, symName: __ZNKSt3__112__hash_tableINS_17__hash_value_typeIyyEENS_22__unordered_map_hasherIyS2_NS_4hashIyEENS_8equal_toIyEELb1EEENS_21__unordered_map_equalIyS2_S7_S5_Lb1EEENS_9allocatorIS2_EEE6key_eqB7v160006Ev, symObjAddr: 0x17CC, symBinAddr: 0x1000097C8, symSize: 0x28 }
  - { offsetInCU: 0x749C, offset: 0x161A6, size: 0x8, addend: 0x0, symName: __ZNKSt3__121__unordered_map_equalIyNS_17__hash_value_typeIyyEENS_8equal_toIyEENS_4hashIyEELb1EEclB7v160006ERKS2_RKy, symObjAddr: 0x17F4, symBinAddr: 0x1000097F0, symSize: 0x48 }
  - { offsetInCU: 0x74DE, offset: 0x161E8, size: 0x8, addend: 0x0, symName: __ZNSt3__121__hash_const_iteratorIPNS_11__hash_nodeINS_17__hash_value_typeIyyEEPvEEEC1B7v160006EPNS_16__hash_node_baseIS6_EEPKv, symObjAddr: 0x183C, symBinAddr: 0x100009838, symSize: 0x3C }
  - { offsetInCU: 0x7524, offset: 0x1622E, size: 0x8, addend: 0x0, symName: __ZNKSt3__117__compressed_pairImNS_22__unordered_map_hasherIyNS_17__hash_value_typeIyyEENS_4hashIyEENS_8equal_toIyEELb1EEEE6secondB7v160006Ev, symObjAddr: 0x1878, symBinAddr: 0x100009874, symSize: 0x24 }
  - { offsetInCU: 0x7548, offset: 0x16252, size: 0x8, addend: 0x0, symName: __ZNKSt3__122__compressed_pair_elemINS_22__unordered_map_hasherIyNS_17__hash_value_typeIyyEENS_4hashIyEENS_8equal_toIyEELb1EEELi1ELb1EE5__getB7v160006Ev, symObjAddr: 0x189C, symBinAddr: 0x100009898, symSize: 0x14 }
  - { offsetInCU: 0x756C, offset: 0x16276, size: 0x8, addend: 0x0, symName: __ZNKSt3__113__scalar_hashIyLm1EEclB7v160006Ey, symObjAddr: 0x18B0, symBinAddr: 0x1000098AC, symSize: 0x20 }
  - { offsetInCU: 0x75CF, offset: 0x162D9, size: 0x8, addend: 0x0, symName: __ZNKSt3__110unique_ptrIA_PNS_16__hash_node_baseIPNS_11__hash_nodeINS_17__hash_value_typeIyyEEPvEEEENS_25__bucket_list_deallocatorINS_9allocatorIS9_EEEEE11get_deleterB7v160006Ev, symObjAddr: 0x18D0, symBinAddr: 0x1000098CC, symSize: 0x24 }
  - { offsetInCU: 0x75F3, offset: 0x162FD, size: 0x8, addend: 0x0, symName: __ZNKSt3__125__bucket_list_deallocatorINS_9allocatorIPNS_16__hash_node_baseIPNS_11__hash_nodeINS_17__hash_value_typeIyyEEPvEEEEEEE4sizeB7v160006Ev, symObjAddr: 0x18F4, symBinAddr: 0x1000098F0, symSize: 0x28 }
  - { offsetInCU: 0x7617, offset: 0x16321, size: 0x8, addend: 0x0, symName: __ZNKSt3__117__compressed_pairIPPNS_16__hash_node_baseIPNS_11__hash_nodeINS_17__hash_value_typeIyyEEPvEEEENS_25__bucket_list_deallocatorINS_9allocatorIS9_EEEEE6secondB7v160006Ev, symObjAddr: 0x191C, symBinAddr: 0x100009918, symSize: 0x28 }
  - { offsetInCU: 0x763B, offset: 0x16345, size: 0x8, addend: 0x0, symName: __ZNKSt3__122__compressed_pair_elemINS_25__bucket_list_deallocatorINS_9allocatorIPNS_16__hash_node_baseIPNS_11__hash_nodeINS_17__hash_value_typeIyyEEPvEEEEEEEELi1ELb0EE5__getB7v160006Ev, symObjAddr: 0x1944, symBinAddr: 0x100009940, symSize: 0x14 }
  - { offsetInCU: 0x765F, offset: 0x16369, size: 0x8, addend: 0x0, symName: __ZNKSt3__117__compressed_pairImNS_9allocatorIPNS_16__hash_node_baseIPNS_11__hash_nodeINS_17__hash_value_typeIyyEEPvEEEEEEE5firstB7v160006Ev, symObjAddr: 0x1958, symBinAddr: 0x100009954, symSize: 0x24 }
  - { offsetInCU: 0x7683, offset: 0x1638D, size: 0x8, addend: 0x0, symName: __ZNKSt3__122__compressed_pair_elemImLi0ELb0EE5__getB7v160006Ev, symObjAddr: 0x197C, symBinAddr: 0x100009978, symSize: 0x14 }
  - { offsetInCU: 0x76A7, offset: 0x163B1, size: 0x8, addend: 0x0, symName: __ZNKSt3__117__compressed_pairIPPNS_16__hash_node_baseIPNS_11__hash_nodeINS_17__hash_value_typeIyyEEPvEEEENS_25__bucket_list_deallocatorINS_9allocatorIS9_EEEEE5firstB7v160006Ev, symObjAddr: 0x1990, symBinAddr: 0x10000998C, symSize: 0x24 }
  - { offsetInCU: 0x76CB, offset: 0x163D5, size: 0x8, addend: 0x0, symName: __ZNKSt3__122__compressed_pair_elemIPPNS_16__hash_node_baseIPNS_11__hash_nodeINS_17__hash_value_typeIyyEEPvEEEELi0ELb0EE5__getB7v160006Ev, symObjAddr: 0x19B4, symBinAddr: 0x1000099B0, symSize: 0x14 }
  - { offsetInCU: 0x76EF, offset: 0x163F9, size: 0x8, addend: 0x0, symName: __ZNKSt3__117__compressed_pairIfNS_21__unordered_map_equalIyNS_17__hash_value_typeIyyEENS_8equal_toIyEENS_4hashIyEELb1EEEE6secondB7v160006Ev, symObjAddr: 0x19C8, symBinAddr: 0x1000099C4, symSize: 0x24 }
  - { offsetInCU: 0x7713, offset: 0x1641D, size: 0x8, addend: 0x0, symName: __ZNKSt3__122__compressed_pair_elemINS_21__unordered_map_equalIyNS_17__hash_value_typeIyyEENS_8equal_toIyEENS_4hashIyEELb1EEELi1ELb1EE5__getB7v160006Ev, symObjAddr: 0x19EC, symBinAddr: 0x1000099E8, symSize: 0x14 }
  - { offsetInCU: 0x7737, offset: 0x16441, size: 0x8, addend: 0x0, symName: __ZNKSt3__18equal_toIyEclB7v160006ERKyS3_, symObjAddr: 0x1A00, symBinAddr: 0x1000099FC, symSize: 0x34 }
  - { offsetInCU: 0x7779, offset: 0x16483, size: 0x8, addend: 0x0, symName: __ZNKSt3__117__hash_value_typeIyyE11__get_valueB7v160006Ev, symObjAddr: 0x1A34, symBinAddr: 0x100009A30, symSize: 0x14 }
  - { offsetInCU: 0x779D, offset: 0x164A7, size: 0x8, addend: 0x0, symName: __ZNSt3__121__hash_const_iteratorIPNS_11__hash_nodeINS_17__hash_value_typeIyyEEPvEEEC2B7v160006EPNS_16__hash_node_baseIS6_EEPKv, symObjAddr: 0x1A48, symBinAddr: 0x100009A44, symSize: 0x24 }
  - { offsetInCU: 0x77E3, offset: 0x164ED, size: 0x8, addend: 0x0, symName: __ZNSt3__113unordered_mapIyyNS_4hashIyEENS_8equal_toIyEENS_9allocatorINS_4pairIKyyEEEEE4findB7v160006ERS7_, symObjAddr: 0x1A6C, symBinAddr: 0x100009A68, symSize: 0x40 }
  - { offsetInCU: 0x7816, offset: 0x16520, size: 0x8, addend: 0x0, symName: __ZNSt3__113unordered_mapIyyNS_4hashIyEENS_8equal_toIyEENS_9allocatorINS_4pairIKyyEEEEE3endB7v160006Ev, symObjAddr: 0x1ADC, symBinAddr: 0x100009AD8, symSize: 0x38 }
  - { offsetInCU: 0x783A, offset: 0x16544, size: 0x8, addend: 0x0, symName: __ZNKSt3__119__hash_map_iteratorINS_15__hash_iteratorIPNS_11__hash_nodeINS_17__hash_value_typeIyyEEPvEEEEEptB7v160006Ev, symObjAddr: 0x1B14, symBinAddr: 0x100009B10, symSize: 0x2C }
  - { offsetInCU: 0x785E, offset: 0x16568, size: 0x8, addend: 0x0, symName: __ZNSt3__113unordered_mapIyyNS_4hashIyEENS_8equal_toIyEENS_9allocatorINS_4pairIKyyEEEEE25__construct_node_with_keyERS7_, symObjAddr: 0x1B40, symBinAddr: 0x100009B3C, symSize: 0x144 }
  - { offsetInCU: 0x78B2, offset: 0x165BC, size: 0x8, addend: 0x0, symName: __ZNSt3__112__hash_tableINS_17__hash_value_typeIyyEENS_22__unordered_map_hasherIyS2_NS_4hashIyEENS_8equal_toIyEELb1EEENS_21__unordered_map_equalIyS2_S7_S5_Lb1EEENS_9allocatorIS2_EEE20__node_insert_uniqueEPNS_11__hash_nodeIS2_PvEE, symObjAddr: 0x1C84, symBinAddr: 0x100009C80, symSize: 0xC8 }
  - { offsetInCU: 0x7905, offset: 0x1660F, size: 0x8, addend: 0x0, symName: __ZNKSt3__110unique_ptrINS_11__hash_nodeINS_17__hash_value_typeIyyEEPvEENS_26__hash_map_node_destructorINS_9allocatorIS5_EEEEE3getB7v160006Ev, symObjAddr: 0x1D4C, symBinAddr: 0x100009D48, symSize: 0x28 }
  - { offsetInCU: 0x7929, offset: 0x16633, size: 0x8, addend: 0x0, symName: __ZNSt3__14pairINS_19__hash_map_iteratorINS_15__hash_iteratorIPNS_11__hash_nodeINS_17__hash_value_typeIyyEEPvEEEEEEbEC1B7v160006IS9_bEERKNS0_IT_T0_EE, symObjAddr: 0x1D74, symBinAddr: 0x100009D70, symSize: 0x34 }
  - { offsetInCU: 0x7971, offset: 0x1667B, size: 0x8, addend: 0x0, symName: __ZNSt3__110unique_ptrINS_11__hash_nodeINS_17__hash_value_typeIyyEEPvEENS_26__hash_map_node_destructorINS_9allocatorIS5_EEEEE7releaseB7v160006Ev, symObjAddr: 0x1DA8, symBinAddr: 0x100009DA4, symSize: 0x44 }
  - { offsetInCU: 0x79A4, offset: 0x166AE, size: 0x8, addend: 0x0, symName: __ZNSt3__110unique_ptrINS_11__hash_nodeINS_17__hash_value_typeIyyEEPvEENS_26__hash_map_node_destructorINS_9allocatorIS5_EEEEED1B7v160006Ev, symObjAddr: 0x1DEC, symBinAddr: 0x100009DE8, symSize: 0x2C }
  - { offsetInCU: 0x79CC, offset: 0x166D6, size: 0x8, addend: 0x0, symName: __ZNSt3__112__hash_tableINS_17__hash_value_typeIyyEENS_22__unordered_map_hasherIyS2_NS_4hashIyEENS_8equal_toIyEELb1EEENS_21__unordered_map_equalIyS2_S7_S5_Lb1EEENS_9allocatorIS2_EEE4findIyEENS_15__hash_iteratorIPNS_11__hash_nodeIS2_PvEEEERKT_, symObjAddr: 0x1E18, symBinAddr: 0x100009E14, symSize: 0x1B4 }
  - { offsetInCU: 0x7A54, offset: 0x1675E, size: 0x8, addend: 0x0, symName: __ZNSt3__119__hash_map_iteratorINS_15__hash_iteratorIPNS_11__hash_nodeINS_17__hash_value_typeIyyEEPvEEEEEC1B7v160006ES8_, symObjAddr: 0x1FCC, symBinAddr: 0x100009FC8, symSize: 0x34 }
  - { offsetInCU: 0x7A8B, offset: 0x16795, size: 0x8, addend: 0x0, symName: __ZNSt3__112__hash_tableINS_17__hash_value_typeIyyEENS_22__unordered_map_hasherIyS2_NS_4hashIyEENS_8equal_toIyEELb1EEENS_21__unordered_map_equalIyS2_S7_S5_Lb1EEENS_9allocatorIS2_EEE13hash_functionB7v160006Ev, symObjAddr: 0x2000, symBinAddr: 0x100009FFC, symSize: 0x28 }
  - { offsetInCU: 0x7AAF, offset: 0x167B9, size: 0x8, addend: 0x0, symName: __ZNSt3__112__hash_tableINS_17__hash_value_typeIyyEENS_22__unordered_map_hasherIyS2_NS_4hashIyEENS_8equal_toIyEELb1EEENS_21__unordered_map_equalIyS2_S7_S5_Lb1EEENS_9allocatorIS2_EEE6key_eqB7v160006Ev, symObjAddr: 0x2028, symBinAddr: 0x10000A024, symSize: 0x28 }
  - { offsetInCU: 0x7AD3, offset: 0x167DD, size: 0x8, addend: 0x0, symName: __ZNSt3__115__hash_iteratorIPNS_11__hash_nodeINS_17__hash_value_typeIyyEEPvEEEC1B7v160006EPNS_16__hash_node_baseIS6_EEPKv, symObjAddr: 0x2050, symBinAddr: 0x10000A04C, symSize: 0x3C }
  - { offsetInCU: 0x7B19, offset: 0x16823, size: 0x8, addend: 0x0, symName: __ZNSt3__112__hash_tableINS_17__hash_value_typeIyyEENS_22__unordered_map_hasherIyS2_NS_4hashIyEENS_8equal_toIyEELb1EEENS_21__unordered_map_equalIyS2_S7_S5_Lb1EEENS_9allocatorIS2_EEE3endEv, symObjAddr: 0x208C, symBinAddr: 0x10000A088, symSize: 0x30 }
  - { offsetInCU: 0x7B3F, offset: 0x16849, size: 0x8, addend: 0x0, symName: __ZNSt3__117__compressed_pairImNS_22__unordered_map_hasherIyNS_17__hash_value_typeIyyEENS_4hashIyEENS_8equal_toIyEELb1EEEE6secondB7v160006Ev, symObjAddr: 0x20BC, symBinAddr: 0x10000A0B8, symSize: 0x24 }
  - { offsetInCU: 0x7B63, offset: 0x1686D, size: 0x8, addend: 0x0, symName: __ZNSt3__122__compressed_pair_elemINS_22__unordered_map_hasherIyNS_17__hash_value_typeIyyEENS_4hashIyEENS_8equal_toIyEELb1EEELi1ELb1EE5__getB7v160006Ev, symObjAddr: 0x20E0, symBinAddr: 0x10000A0DC, symSize: 0x14 }
  - { offsetInCU: 0x7B87, offset: 0x16891, size: 0x8, addend: 0x0, symName: __ZNSt3__117__compressed_pairIfNS_21__unordered_map_equalIyNS_17__hash_value_typeIyyEENS_8equal_toIyEENS_4hashIyEELb1EEEE6secondB7v160006Ev, symObjAddr: 0x20F4, symBinAddr: 0x10000A0F0, symSize: 0x24 }
  - { offsetInCU: 0x7BAB, offset: 0x168B5, size: 0x8, addend: 0x0, symName: __ZNSt3__122__compressed_pair_elemINS_21__unordered_map_equalIyNS_17__hash_value_typeIyyEENS_8equal_toIyEENS_4hashIyEELb1EEELi1ELb1EE5__getB7v160006Ev, symObjAddr: 0x2118, symBinAddr: 0x10000A114, symSize: 0x14 }
  - { offsetInCU: 0x7BCF, offset: 0x168D9, size: 0x8, addend: 0x0, symName: __ZNSt3__115__hash_iteratorIPNS_11__hash_nodeINS_17__hash_value_typeIyyEEPvEEEC2B7v160006EPNS_16__hash_node_baseIS6_EEPKv, symObjAddr: 0x212C, symBinAddr: 0x10000A128, symSize: 0x24 }
  - { offsetInCU: 0x7C15, offset: 0x1691F, size: 0x8, addend: 0x0, symName: __ZNSt3__119__hash_map_iteratorINS_15__hash_iteratorIPNS_11__hash_nodeINS_17__hash_value_typeIyyEEPvEEEEEC2B7v160006ES8_, symObjAddr: 0x2150, symBinAddr: 0x10000A14C, symSize: 0x20 }
  - { offsetInCU: 0x7C4C, offset: 0x16956, size: 0x8, addend: 0x0, symName: __ZNSt3__114pointer_traitsIPNS_4pairIKyyEEE10pointer_toB7v160006ERS3_, symObjAddr: 0x21D4, symBinAddr: 0x10000A1D0, symSize: 0x14 }
  - { offsetInCU: 0x7C6E, offset: 0x16978, size: 0x8, addend: 0x0, symName: __ZNKSt3__115__hash_iteratorIPNS_11__hash_nodeINS_17__hash_value_typeIyyEEPvEEEptB7v160006Ev, symObjAddr: 0x21E8, symBinAddr: 0x10000A1E4, symSize: 0x30 }
  - { offsetInCU: 0x7C92, offset: 0x1699C, size: 0x8, addend: 0x0, symName: __ZNSt3__114pointer_traitsIPNS_17__hash_value_typeIyyEEE10pointer_toB7v160006ERS2_, symObjAddr: 0x2218, symBinAddr: 0x10000A214, symSize: 0x14 }
  - { offsetInCU: 0x7CB4, offset: 0x169BE, size: 0x8, addend: 0x0, symName: __ZNSt3__116allocator_traitsINS_9allocatorINS_11__hash_nodeINS_17__hash_value_typeIyyEEPvEEEEE8allocateB7v160006ERS7_m, symObjAddr: 0x222C, symBinAddr: 0x10000A228, symSize: 0x2C }
  - { offsetInCU: 0x7CE6, offset: 0x169F0, size: 0x8, addend: 0x0, symName: __ZNSt3__126__hash_map_node_destructorINS_9allocatorINS_11__hash_nodeINS_17__hash_value_typeIyyEEPvEEEEEC1B7v160006ERS7_, symObjAddr: 0x2258, symBinAddr: 0x10000A254, symSize: 0x34 }
  - { offsetInCU: 0x7D22, offset: 0x16A2C, size: 0x8, addend: 0x0, symName: __ZNSt3__110unique_ptrINS_11__hash_nodeINS_17__hash_value_typeIyyEEPvEENS_26__hash_map_node_destructorINS_9allocatorIS5_EEEEEC1B7v160006ILb1EvEEPS5_NS_16__dependent_typeINS_27__unique_ptr_deleter_sfinaeIS9_EEXT_EE20__good_rval_ref_typeE, symObjAddr: 0x228C, symBinAddr: 0x10000A288, symSize: 0x3C }
  - { offsetInCU: 0x7D76, offset: 0x16A80, size: 0x8, addend: 0x0, symName: __ZNSt3__116allocator_traitsINS_9allocatorINS_11__hash_nodeINS_17__hash_value_typeIyyEEPvEEEEE9constructB7v160006IKyJRSA_EvEEvRS7_PT_DpOT0_, symObjAddr: 0x22C8, symBinAddr: 0x10000A2C4, symSize: 0x34 }
  - { offsetInCU: 0x7DCC, offset: 0x16AD6, size: 0x8, addend: 0x0, symName: __ZNKSt3__110unique_ptrINS_11__hash_nodeINS_17__hash_value_typeIyyEEPvEENS_26__hash_map_node_destructorINS_9allocatorIS5_EEEEEptB7v160006Ev, symObjAddr: 0x22FC, symBinAddr: 0x10000A2F8, symSize: 0x28 }
  - { offsetInCU: 0x7DF0, offset: 0x16AFA, size: 0x8, addend: 0x0, symName: __ZNSt3__110unique_ptrINS_11__hash_nodeINS_17__hash_value_typeIyyEEPvEENS_26__hash_map_node_destructorINS_9allocatorIS5_EEEEE11get_deleterB7v160006Ev, symObjAddr: 0x2324, symBinAddr: 0x10000A320, symSize: 0x24 }
  - { offsetInCU: 0x7E19, offset: 0x16B23, size: 0x8, addend: 0x0, symName: __ZNSt3__116allocator_traitsINS_9allocatorINS_11__hash_nodeINS_17__hash_value_typeIyyEEPvEEEEE9constructB7v160006IyJEvEEvRS7_PT_DpOT0_, symObjAddr: 0x2348, symBinAddr: 0x10000A344, symSize: 0x2C }
  - { offsetInCU: 0x7E5A, offset: 0x16B64, size: 0x8, addend: 0x0, symName: __ZNSt3__19allocatorINS_11__hash_nodeINS_17__hash_value_typeIyyEEPvEEE8allocateB7v160006Em, symObjAddr: 0x2374, symBinAddr: 0x10000A370, symSize: 0x84 }
  - { offsetInCU: 0x7E96, offset: 0x16BA0, size: 0x8, addend: 0x0, symName: __ZNSt3__116allocator_traitsINS_9allocatorINS_11__hash_nodeINS_17__hash_value_typeIyyEEPvEEEEE8max_sizeB7v160006IS7_vEEmRKS7_, symObjAddr: 0x23F8, symBinAddr: 0x10000A3F4, symSize: 0x24 }
  - { offsetInCU: 0x7EC3, offset: 0x16BCD, size: 0x8, addend: 0x0, symName: __ZNKSt3__19allocatorINS_11__hash_nodeINS_17__hash_value_typeIyyEEPvEEE8max_sizeB7v160006Ev, symObjAddr: 0x2478, symBinAddr: 0x10000A474, symSize: 0x14 }
  - { offsetInCU: 0x7EE7, offset: 0x16BF1, size: 0x8, addend: 0x0, symName: __ZNSt3__126__hash_map_node_destructorINS_9allocatorINS_11__hash_nodeINS_17__hash_value_typeIyyEEPvEEEEEC2B7v160006ERS7_, symObjAddr: 0x24B0, symBinAddr: 0x10000A4AC, symSize: 0x28 }
  - { offsetInCU: 0x7F1E, offset: 0x16C28, size: 0x8, addend: 0x0, symName: __ZNSt3__110unique_ptrINS_11__hash_nodeINS_17__hash_value_typeIyyEEPvEENS_26__hash_map_node_destructorINS_9allocatorIS5_EEEEEC2B7v160006ILb1EvEEPS5_NS_16__dependent_typeINS_27__unique_ptr_deleter_sfinaeIS9_EEXT_EE20__good_rval_ref_typeE, symObjAddr: 0x24D8, symBinAddr: 0x10000A4D4, symSize: 0x5C }
  - { offsetInCU: 0x7F6D, offset: 0x16C77, size: 0x8, addend: 0x0, symName: __ZNSt3__117__compressed_pairIPNS_11__hash_nodeINS_17__hash_value_typeIyyEEPvEENS_26__hash_map_node_destructorINS_9allocatorIS5_EEEEEC1B7v160006IRS6_SA_EEOT_OT0_, symObjAddr: 0x2534, symBinAddr: 0x10000A530, symSize: 0x3C }
  - { offsetInCU: 0x7FC3, offset: 0x16CCD, size: 0x8, addend: 0x0, symName: __ZNSt3__117__compressed_pairIPNS_11__hash_nodeINS_17__hash_value_typeIyyEEPvEENS_26__hash_map_node_destructorINS_9allocatorIS5_EEEEEC2B7v160006IRS6_SA_EEOT_OT0_, symObjAddr: 0x2570, symBinAddr: 0x10000A56C, symSize: 0x48 }
  - { offsetInCU: 0x8019, offset: 0x16D23, size: 0x8, addend: 0x0, symName: __ZNSt3__122__compressed_pair_elemIPNS_11__hash_nodeINS_17__hash_value_typeIyyEEPvEELi0ELb0EEC2B7v160006IRS6_vEEOT_, symObjAddr: 0x25B8, symBinAddr: 0x10000A5B4, symSize: 0x24 }
  - { offsetInCU: 0x8059, offset: 0x16D63, size: 0x8, addend: 0x0, symName: __ZNSt3__122__compressed_pair_elemINS_26__hash_map_node_destructorINS_9allocatorINS_11__hash_nodeINS_17__hash_value_typeIyyEEPvEEEEEELi1ELb0EEC2B7v160006IS9_vEEOT_, symObjAddr: 0x25DC, symBinAddr: 0x10000A5D8, symSize: 0x24 }
  - { offsetInCU: 0x8099, offset: 0x16DA3, size: 0x8, addend: 0x0, symName: __ZNSt3__19allocatorINS_11__hash_nodeINS_17__hash_value_typeIyyEEPvEEE9constructB7v160006IKyJRS8_EEEvPT_DpOT0_, symObjAddr: 0x2600, symBinAddr: 0x10000A5FC, symSize: 0x28 }
  - { offsetInCU: 0x80ED, offset: 0x16DF7, size: 0x8, addend: 0x0, symName: __ZNKSt3__117__compressed_pairIPNS_11__hash_nodeINS_17__hash_value_typeIyyEEPvEENS_26__hash_map_node_destructorINS_9allocatorIS5_EEEEE5firstB7v160006Ev, symObjAddr: 0x2628, symBinAddr: 0x10000A624, symSize: 0x24 }
  - { offsetInCU: 0x8111, offset: 0x16E1B, size: 0x8, addend: 0x0, symName: __ZNKSt3__122__compressed_pair_elemIPNS_11__hash_nodeINS_17__hash_value_typeIyyEEPvEELi0ELb0EE5__getB7v160006Ev, symObjAddr: 0x264C, symBinAddr: 0x10000A648, symSize: 0x14 }
  - { offsetInCU: 0x8135, offset: 0x16E3F, size: 0x8, addend: 0x0, symName: __ZNSt3__117__compressed_pairIPNS_11__hash_nodeINS_17__hash_value_typeIyyEEPvEENS_26__hash_map_node_destructorINS_9allocatorIS5_EEEEE6secondB7v160006Ev, symObjAddr: 0x2660, symBinAddr: 0x10000A65C, symSize: 0x28 }
  - { offsetInCU: 0x8159, offset: 0x16E63, size: 0x8, addend: 0x0, symName: __ZNSt3__122__compressed_pair_elemINS_26__hash_map_node_destructorINS_9allocatorINS_11__hash_nodeINS_17__hash_value_typeIyyEEPvEEEEEELi1ELb0EE5__getB7v160006Ev, symObjAddr: 0x2688, symBinAddr: 0x10000A684, symSize: 0x14 }
  - { offsetInCU: 0x817D, offset: 0x16E87, size: 0x8, addend: 0x0, symName: __ZNSt3__19allocatorINS_11__hash_nodeINS_17__hash_value_typeIyyEEPvEEE9constructB7v160006IyJEEEvPT_DpOT0_, symObjAddr: 0x269C, symBinAddr: 0x10000A698, symSize: 0x1C }
  - { offsetInCU: 0x81BD, offset: 0x16EC7, size: 0x8, addend: 0x0, symName: __ZNKSt3__122__unordered_map_hasherIyNS_17__hash_value_typeIyyEENS_4hashIyEENS_8equal_toIyEELb1EEclB7v160006ERKS2_, symObjAddr: 0x26B8, symBinAddr: 0x10000A6B4, symSize: 0x40 }
  - { offsetInCU: 0x81F0, offset: 0x16EFA, size: 0x8, addend: 0x0, symName: __ZNSt3__112__hash_tableINS_17__hash_value_typeIyyEENS_22__unordered_map_hasherIyS2_NS_4hashIyEENS_8equal_toIyEELb1EEENS_21__unordered_map_equalIyS2_S7_S5_Lb1EEENS_9allocatorIS2_EEE28__node_insert_unique_prepareB7v160006EmRS2_, symObjAddr: 0x26F8, symBinAddr: 0x10000A6F4, symSize: 0x244 }
  - { offsetInCU: 0x826F, offset: 0x16F79, size: 0x8, addend: 0x0, symName: __ZNSt3__112__hash_tableINS_17__hash_value_typeIyyEENS_22__unordered_map_hasherIyS2_NS_4hashIyEENS_8equal_toIyEELb1EEENS_21__unordered_map_equalIyS2_S7_S5_Lb1EEENS_9allocatorIS2_EEE28__node_insert_unique_performB7v160006EPNS_11__hash_nodeIS2_PvEE, symObjAddr: 0x293C, symBinAddr: 0x10000A938, symSize: 0x154 }
  - { offsetInCU: 0x82D1, offset: 0x16FDB, size: 0x8, addend: 0x0, symName: __ZNSt3__116__hash_node_baseIPNS_11__hash_nodeINS_17__hash_value_typeIyyEEPvEEE5__ptrB7v160006Ev, symObjAddr: 0x2A90, symBinAddr: 0x10000AA8C, symSize: 0x24 }
  - { offsetInCU: 0x82F5, offset: 0x16FFF, size: 0x8, addend: 0x0, symName: __ZNSt3__14pairINS_15__hash_iteratorIPNS_11__hash_nodeINS_17__hash_value_typeIyyEEPvEEEEbEC1B7v160006ERKS8_RKb, symObjAddr: 0x2AB4, symBinAddr: 0x10000AAB0, symSize: 0x3C }
  - { offsetInCU: 0x8339, offset: 0x17043, size: 0x8, addend: 0x0, symName: __ZNKSt3__121__unordered_map_equalIyNS_17__hash_value_typeIyyEENS_8equal_toIyEENS_4hashIyEELb1EEclB7v160006ERKS2_S9_, symObjAddr: 0x2AF0, symBinAddr: 0x10000AAEC, symSize: 0x54 }
  - { offsetInCU: 0x837B, offset: 0x17085, size: 0x8, addend: 0x0, symName: __ZNSt3__112__hash_tableINS_17__hash_value_typeIyyEENS_22__unordered_map_hasherIyS2_NS_4hashIyEENS_8equal_toIyEELb1EEENS_21__unordered_map_equalIyS2_S7_S5_Lb1EEENS_9allocatorIS2_EEE4sizeB7v160006Ev, symObjAddr: 0x2B44, symBinAddr: 0x10000AB40, symSize: 0x28 }
  - { offsetInCU: 0x839F, offset: 0x170A9, size: 0x8, addend: 0x0, symName: __ZNSt3__112__hash_tableINS_17__hash_value_typeIyyEENS_22__unordered_map_hasherIyS2_NS_4hashIyEENS_8equal_toIyEELb1EEENS_21__unordered_map_equalIyS2_S7_S5_Lb1EEENS_9allocatorIS2_EEE15max_load_factorB7v160006Ev, symObjAddr: 0x2B6C, symBinAddr: 0x10000AB68, symSize: 0x28 }
  - { offsetInCU: 0x83C3, offset: 0x170CD, size: 0x8, addend: 0x0, symName: __ZNSt3__112__hash_tableINS_17__hash_value_typeIyyEENS_22__unordered_map_hasherIyS2_NS_4hashIyEENS_8equal_toIyEELb1EEENS_21__unordered_map_equalIyS2_S7_S5_Lb1EEENS_9allocatorIS2_EEE15__rehash_uniqueB7v160006Em, symObjAddr: 0x2B94, symBinAddr: 0x10000AB90, symSize: 0x2C }
  - { offsetInCU: 0x83F6, offset: 0x17100, size: 0x8, addend: 0x0, symName: __Z4ceilB7v160006f, symObjAddr: 0x2C3C, symBinAddr: 0x10000AC38, symSize: 0x18 }
  - { offsetInCU: 0x8424, offset: 0x1712E, size: 0x8, addend: 0x0, symName: __ZNSt3__117__compressed_pairImNS_22__unordered_map_hasherIyNS_17__hash_value_typeIyyEENS_4hashIyEENS_8equal_toIyEELb1EEEE5firstB7v160006Ev, symObjAddr: 0x2C54, symBinAddr: 0x10000AC50, symSize: 0x24 }
  - { offsetInCU: 0x8448, offset: 0x17152, size: 0x8, addend: 0x0, symName: __ZNSt3__117__compressed_pairIfNS_21__unordered_map_equalIyNS_17__hash_value_typeIyyEENS_8equal_toIyEENS_4hashIyEELb1EEEE5firstB7v160006Ev, symObjAddr: 0x2C78, symBinAddr: 0x10000AC74, symSize: 0x24 }
  - { offsetInCU: 0x846C, offset: 0x17176, size: 0x8, addend: 0x0, symName: __ZNSt3__122__compressed_pair_elemIfLi0ELb0EE5__getB7v160006Ev, symObjAddr: 0x2C9C, symBinAddr: 0x10000AC98, symSize: 0x14 }
  - { offsetInCU: 0x8490, offset: 0x1719A, size: 0x8, addend: 0x0, symName: __ZNSt3__112__hash_tableINS_17__hash_value_typeIyyEENS_22__unordered_map_hasherIyS2_NS_4hashIyEENS_8equal_toIyEELb1EEENS_21__unordered_map_equalIyS2_S7_S5_Lb1EEENS_9allocatorIS2_EEE8__rehashILb1EEEvm, symObjAddr: 0x2CB0, symBinAddr: 0x10000ACAC, symSize: 0x1A8 }
  - { offsetInCU: 0x84DE, offset: 0x171E8, size: 0x8, addend: 0x0, symName: __ZNSt3__112__hash_tableINS_17__hash_value_typeIyyEENS_22__unordered_map_hasherIyS2_NS_4hashIyEENS_8equal_toIyEELb1EEENS_21__unordered_map_equalIyS2_S7_S5_Lb1EEENS_9allocatorIS2_EEE11__do_rehashILb1EEEvm, symObjAddr: 0x2E58, symBinAddr: 0x10000AE54, symSize: 0x290 }
  - { offsetInCU: 0x85BF, offset: 0x172C9, size: 0x8, addend: 0x0, symName: __ZNSt3__110unique_ptrIA_PNS_16__hash_node_baseIPNS_11__hash_nodeINS_17__hash_value_typeIyyEEPvEEEENS_25__bucket_list_deallocatorINS_9allocatorIS9_EEEEE11get_deleterB7v160006Ev, symObjAddr: 0x3164, symBinAddr: 0x10000B160, symSize: 0x24 }
  - { offsetInCU: 0x85E3, offset: 0x172ED, size: 0x8, addend: 0x0, symName: __ZNSt3__110unique_ptrIA_PNS_16__hash_node_baseIPNS_11__hash_nodeINS_17__hash_value_typeIyyEEPvEEEENS_25__bucket_list_deallocatorINS_9allocatorIS9_EEEEE5resetB7v160006IPS9_EENS_9enable_ifIXsr28_CheckArrayPointerConversionIT_EE5valueEvE4typeESJ_, symObjAddr: 0x3188, symBinAddr: 0x10000B184, symSize: 0x78 }
  - { offsetInCU: 0x862E, offset: 0x17338, size: 0x8, addend: 0x0, symName: __ZNSt3__116allocator_traitsINS_9allocatorIPNS_16__hash_node_baseIPNS_11__hash_nodeINS_17__hash_value_typeIyyEEPvEEEEEEE8allocateB7v160006ERSB_m, symObjAddr: 0x3200, symBinAddr: 0x10000B1FC, symSize: 0x2C }
  - { offsetInCU: 0x8660, offset: 0x1736A, size: 0x8, addend: 0x0, symName: __ZNSt3__19allocatorIPNS_16__hash_node_baseIPNS_11__hash_nodeINS_17__hash_value_typeIyyEEPvEEEEE8allocateB7v160006Em, symObjAddr: 0x322C, symBinAddr: 0x10000B228, symSize: 0x84 }
  - { offsetInCU: 0x869C, offset: 0x173A6, size: 0x8, addend: 0x0, symName: __ZNSt3__116allocator_traitsINS_9allocatorIPNS_16__hash_node_baseIPNS_11__hash_nodeINS_17__hash_value_typeIyyEEPvEEEEEEE8max_sizeB7v160006ISB_vEEmRKSB_, symObjAddr: 0x32B0, symBinAddr: 0x10000B2AC, symSize: 0x24 }
  - { offsetInCU: 0x86C9, offset: 0x173D3, size: 0x8, addend: 0x0, symName: __ZNKSt3__19allocatorIPNS_16__hash_node_baseIPNS_11__hash_nodeINS_17__hash_value_typeIyyEEPvEEEEE8max_sizeB7v160006Ev, symObjAddr: 0x32D4, symBinAddr: 0x10000B2D0, symSize: 0x14 }
  - { offsetInCU: 0x86F7, offset: 0x17401, size: 0x8, addend: 0x0, symName: __ZNKSt3__16__lessImmEclB7v160006ERKmS3_, symObjAddr: 0x3358, symBinAddr: 0x10000B354, symSize: 0x34 }
  - { offsetInCU: 0x8737, offset: 0x17441, size: 0x8, addend: 0x0, symName: __ZNSt3__14pairINS_15__hash_iteratorIPNS_11__hash_nodeINS_17__hash_value_typeIyyEEPvEEEEbEC2B7v160006ERKS8_RKb, symObjAddr: 0x338C, symBinAddr: 0x10000B388, symSize: 0x38 }
  - { offsetInCU: 0x877B, offset: 0x17485, size: 0x8, addend: 0x0, symName: __ZNSt3__14pairINS_19__hash_map_iteratorINS_15__hash_iteratorIPNS_11__hash_nodeINS_17__hash_value_typeIyyEEPvEEEEEEbEC2B7v160006IS9_bEERKNS0_IT_T0_EE, symObjAddr: 0x33C4, symBinAddr: 0x10000B3C0, symSize: 0x50 }
  - { offsetInCU: 0x87C3, offset: 0x174CD, size: 0x8, addend: 0x0, symName: __ZNSt3__117__compressed_pairIPNS_11__hash_nodeINS_17__hash_value_typeIyyEEPvEENS_26__hash_map_node_destructorINS_9allocatorIS5_EEEEE5firstB7v160006Ev, symObjAddr: 0x3414, symBinAddr: 0x10000B410, symSize: 0x24 }
  - { offsetInCU: 0x87E7, offset: 0x174F1, size: 0x8, addend: 0x0, symName: __ZNSt3__122__compressed_pair_elemIPNS_11__hash_nodeINS_17__hash_value_typeIyyEEPvEELi0ELb0EE5__getB7v160006Ev, symObjAddr: 0x3438, symBinAddr: 0x10000B434, symSize: 0x14 }
  - { offsetInCU: 0x880B, offset: 0x17515, size: 0x8, addend: 0x0, symName: __ZNSt3__110unique_ptrINS_11__hash_nodeINS_17__hash_value_typeIyyEEPvEENS_26__hash_map_node_destructorINS_9allocatorIS5_EEEEED2B7v160006Ev, symObjAddr: 0x344C, symBinAddr: 0x10000B448, symSize: 0x30 }
  - { offsetInCU: 0x8833, offset: 0x1753D, size: 0x8, addend: 0x0, symName: __ZNSt3__110unique_ptrINS_11__hash_nodeINS_17__hash_value_typeIyyEEPvEENS_26__hash_map_node_destructorINS_9allocatorIS5_EEEEE5resetB7v160006EPS5_, symObjAddr: 0x347C, symBinAddr: 0x10000B478, symSize: 0x78 }
  - { offsetInCU: 0x8875, offset: 0x1757F, size: 0x8, addend: 0x0, symName: __ZNSt3__126__hash_map_node_destructorINS_9allocatorINS_11__hash_nodeINS_17__hash_value_typeIyyEEPvEEEEEclB7v160006EPS6_, symObjAddr: 0x34F4, symBinAddr: 0x10000B4F0, symSize: 0xE4 }
  - { offsetInCU: 0x88A8, offset: 0x175B2, size: 0x8, addend: 0x0, symName: __ZNSt3__116allocator_traitsINS_9allocatorINS_11__hash_nodeINS_17__hash_value_typeIyyEEPvEEEEE7destroyB7v160006IyvvEEvRS7_PT_, symObjAddr: 0x35D8, symBinAddr: 0x10000B5D4, symSize: 0x14 }
  - { offsetInCU: 0x88E1, offset: 0x175EB, size: 0x8, addend: 0x0, symName: __ZNSt3__116allocator_traitsINS_9allocatorINS_11__hash_nodeINS_17__hash_value_typeIyyEEPvEEEEE7destroyB7v160006IKyvvEEvRS7_PT_, symObjAddr: 0x35EC, symBinAddr: 0x10000B5E8, symSize: 0x14 }
  - { offsetInCU: 0x26, offset: 0x17752, size: 0x8, addend: 0x0, symName: __Z10mcache_newjjj, symObjAddr: 0x0, symBinAddr: 0x10000B5FC, symSize: 0xAC }
  - { offsetInCU: 0x6E, offset: 0x1779A, size: 0x8, addend: 0x0, symName: __Z10mcache_newjjj, symObjAddr: 0x0, symBinAddr: 0x10000B5FC, symSize: 0xAC }
  - { offsetInCU: 0xC4, offset: 0x177F0, size: 0x8, addend: 0x0, symName: __Z25mcache_select_leader_setsP6MCachej, symObjAddr: 0xAC, symBinAddr: 0x10000B6A8, symSize: 0x194 }
  - { offsetInCU: 0x140, offset: 0x1786C, size: 0x8, addend: 0x0, symName: __Z13mcache_accessP6MCachey, symObjAddr: 0x240, symBinAddr: 0x10000B83C, symSize: 0x188 }
  - { offsetInCU: 0x1DC, offset: 0x17908, size: 0x8, addend: 0x0, symName: __Z16mcache_get_indexP6MCachey, symObjAddr: 0x3C8, symBinAddr: 0x10000B9C4, symSize: 0x68 }
  - { offsetInCU: 0x228, offset: 0x17954, size: 0x8, addend: 0x0, symName: __Z12mcache_probeP6MCachey, symObjAddr: 0x430, symBinAddr: 0x10000BA2C, symSize: 0x100 }
  - { offsetInCU: 0x2C4, offset: 0x179F0, size: 0x8, addend: 0x0, symName: __Z17mcache_invalidateP6MCachey, symObjAddr: 0x530, symBinAddr: 0x10000BB2C, symSize: 0x108 }
  - { offsetInCU: 0x360, offset: 0x17A8C, size: 0x8, addend: 0x0, symName: __Z17mcache_mark_dirtyP6MCachey, symObjAddr: 0x638, symBinAddr: 0x10000BC34, symSize: 0x108 }
  - { offsetInCU: 0x3FC, offset: 0x17B28, size: 0x8, addend: 0x0, symName: __Z14mcache_installP6MCachey, symObjAddr: 0x740, symBinAddr: 0x10000BD3C, symSize: 0x2D8 }
  - { offsetInCU: 0x4B0, offset: 0x17BDC, size: 0x8, addend: 0x0, symName: __Z18mcache_find_victimP6MCachej, symObjAddr: 0xA18, symBinAddr: 0x10000C014, symSize: 0x178 }
  - { offsetInCU: 0x51A, offset: 0x17C46, size: 0x8, addend: 0x0, symName: __Z26mcache_drrip_get_ripctrvalP6MCachej, symObjAddr: 0xBA8, symBinAddr: 0x10000C1A4, symSize: 0x1B0 }
  - { offsetInCU: 0x566, offset: 0x17C92, size: 0x8, addend: 0x0, symName: __Z27mcache_dip_check_lru_updateP6MCachej, symObjAddr: 0xD58, symBinAddr: 0x10000C354, symSize: 0x1B0 }
  - { offsetInCU: 0x5AE, offset: 0x17CDA, size: 0x8, addend: 0x0, symName: __Z22mcache_find_victim_lruP6MCachej, symObjAddr: 0xF08, symBinAddr: 0x10000C504, symSize: 0xD0 }
  - { offsetInCU: 0x627, offset: 0x17D53, size: 0x8, addend: 0x0, symName: __Z22mcache_find_victim_rndP6MCachej, symObjAddr: 0xFD8, symBinAddr: 0x10000C5D4, symSize: 0x64 }
  - { offsetInCU: 0x682, offset: 0x17DAE, size: 0x8, addend: 0x0, symName: __Z24mcache_find_victim_srripP6MCachej, symObjAddr: 0x103C, symBinAddr: 0x10000C638, symSize: 0x150 }
  - { offsetInCU: 0x6FB, offset: 0x17E27, size: 0x8, addend: 0x0, symName: __Z18mcache_print_statsP6MCachePc, symObjAddr: 0x118C, symBinAddr: 0x10000C788, symSize: 0xC0 }
  - { offsetInCU: 0x743, offset: 0x17E6F, size: 0x8, addend: 0x0, symName: __Z19mcache_line_cleanseP6MCachey, symObjAddr: 0x124C, symBinAddr: 0x10000C848, symSize: 0xF4 }
  - { offsetInCU: 0x7F2, offset: 0x17F1E, size: 0x8, addend: 0x0, symName: __Z18mcache_vwq_cleanseP6MCachey, symObjAddr: 0x1340, symBinAddr: 0x10000C93C, symSize: 0x9C }
  - { offsetInCU: 0x26, offset: 0x17FCC, size: 0x8, addend: 0x0, symName: __Z9die_usagev, symObjAddr: 0x0, symBinAddr: 0x10000C9D8, symSize: 0x130 }
  - { offsetInCU: 0x3F, offset: 0x17FE5, size: 0x8, addend: 0x0, symName: _CORE_WIDTH, symObjAddr: 0x19F8, symBinAddr: 0x100014010, symSize: 0x0 }
  - { offsetInCU: 0x5B, offset: 0x18001, size: 0x8, addend: 0x0, symName: _ROB_SIZE, symObjAddr: 0x1A00, symBinAddr: 0x100014018, symSize: 0x0 }
  - { offsetInCU: 0x70, offset: 0x18016, size: 0x8, addend: 0x0, symName: _USE_IMAT_TRACES, symObjAddr: 0x1A08, symBinAddr: 0x100014020, symSize: 0x0 }
  - { offsetInCU: 0x85, offset: 0x1802B, size: 0x8, addend: 0x0, symName: _TRACE_LIMIT, symObjAddr: 0x1A10, symBinAddr: 0x100014028, symSize: 0x0 }
  - { offsetInCU: 0x9A, offset: 0x18040, size: 0x8, addend: 0x0, symName: _INST_LIMIT, symObjAddr: 0x1A18, symBinAddr: 0x100014030, symSize: 0x0 }
  - { offsetInCU: 0xAF, offset: 0x18055, size: 0x8, addend: 0x0, symName: _NUM_THREADS, symObjAddr: 0x19470, symBinAddr: 0x100014148, symSize: 0x0 }
  - { offsetInCU: 0xC4, offset: 0x1806A, size: 0x8, addend: 0x0, symName: _MT_APP_THREADS, symObjAddr: 0x19478, symBinAddr: 0x100014150, symSize: 0x0 }
  - { offsetInCU: 0xD9, offset: 0x1807F, size: 0x8, addend: 0x0, symName: _LINESIZE, symObjAddr: 0x1A20, symBinAddr: 0x100014038, symSize: 0x0 }
  - { offsetInCU: 0xEE, offset: 0x18094, size: 0x8, addend: 0x0, symName: _OS_PAGESIZE, symObjAddr: 0x1A28, symBinAddr: 0x100014040, symSize: 0x0 }
  - { offsetInCU: 0x103, offset: 0x180A9, size: 0x8, addend: 0x0, symName: _L3_SIZE_KB, symObjAddr: 0x1A30, symBinAddr: 0x100014048, symSize: 0x0 }
  - { offsetInCU: 0x118, offset: 0x180BE, size: 0x8, addend: 0x0, symName: _L3_ASSOC, symObjAddr: 0x1A38, symBinAddr: 0x100014050, symSize: 0x0 }
  - { offsetInCU: 0x12D, offset: 0x180D3, size: 0x8, addend: 0x0, symName: _L3_LATENCY, symObjAddr: 0x1A40, symBinAddr: 0x100014058, symSize: 0x0 }
  - { offsetInCU: 0x142, offset: 0x180E8, size: 0x8, addend: 0x0, symName: _L3_REPL, symObjAddr: 0x19480, symBinAddr: 0x100014158, symSize: 0x0 }
  - { offsetInCU: 0x157, offset: 0x180FD, size: 0x8, addend: 0x0, symName: _L3_PERFECT, symObjAddr: 0x19488, symBinAddr: 0x100014160, symSize: 0x0 }
  - { offsetInCU: 0x16C, offset: 0x18112, size: 0x8, addend: 0x0, symName: _MEM_SIZE_MB, symObjAddr: 0x1A48, symBinAddr: 0x100014060, symSize: 0x0 }
  - { offsetInCU: 0x181, offset: 0x18127, size: 0x8, addend: 0x0, symName: _MEM_CHANNELS, symObjAddr: 0x1A50, symBinAddr: 0x100014068, symSize: 0x0 }
  - { offsetInCU: 0x196, offset: 0x1813C, size: 0x8, addend: 0x0, symName: _MEM_BANKS, symObjAddr: 0x1A58, symBinAddr: 0x100014070, symSize: 0x0 }
  - { offsetInCU: 0x1AB, offset: 0x18151, size: 0x8, addend: 0x0, symName: _MEM_PAGESIZE, symObjAddr: 0x1A60, symBinAddr: 0x100014078, symSize: 0x0 }
  - { offsetInCU: 0x1C0, offset: 0x18166, size: 0x8, addend: 0x0, symName: _MEM_CLOSEPAGE, symObjAddr: 0x19490, symBinAddr: 0x100014168, symSize: 0x0 }
  - { offsetInCU: 0x1D5, offset: 0x1817B, size: 0x8, addend: 0x0, symName: _DRAM_REF_POLICY, symObjAddr: 0x1A68, symBinAddr: 0x100014080, symSize: 0x0 }
  - { offsetInCU: 0x1EA, offset: 0x18190, size: 0x8, addend: 0x0, symName: _DRAM_MAP_POLICY, symObjAddr: 0x1A70, symBinAddr: 0x100014088, symSize: 0x0 }
  - { offsetInCU: 0x1FF, offset: 0x181A5, size: 0x8, addend: 0x0, symName: _DRAM_SCHED_POLICY, symObjAddr: 0x19498, symBinAddr: 0x100014170, symSize: 0x0 }
  - { offsetInCU: 0x214, offset: 0x181BA, size: 0x8, addend: 0x0, symName: _DRAM_MOP_GANGSIZE, symObjAddr: 0x1A78, symBinAddr: 0x100014090, symSize: 0x0 }
  - { offsetInCU: 0x229, offset: 0x181CF, size: 0x8, addend: 0x0, symName: _tRC, symObjAddr: 0x1A80, symBinAddr: 0x100014098, symSize: 0x0 }
  - { offsetInCU: 0x23E, offset: 0x181E4, size: 0x8, addend: 0x0, symName: _tRFC, symObjAddr: 0x1A88, symBinAddr: 0x1000140A0, symSize: 0x0 }
  - { offsetInCU: 0x253, offset: 0x181F9, size: 0x8, addend: 0x0, symName: _tACT, symObjAddr: 0x1A90, symBinAddr: 0x1000140A8, symSize: 0x0 }
  - { offsetInCU: 0x268, offset: 0x1820E, size: 0x8, addend: 0x0, symName: _tCAS, symObjAddr: 0x1A98, symBinAddr: 0x1000140B0, symSize: 0x0 }
  - { offsetInCU: 0x27D, offset: 0x18223, size: 0x8, addend: 0x0, symName: _tPRE, symObjAddr: 0x1AA0, symBinAddr: 0x1000140B8, symSize: 0x0 }
  - { offsetInCU: 0x292, offset: 0x18238, size: 0x8, addend: 0x0, symName: _tRAS, symObjAddr: 0x1AA8, symBinAddr: 0x1000140C0, symSize: 0x0 }
  - { offsetInCU: 0x2A7, offset: 0x1824D, size: 0x8, addend: 0x0, symName: _tRDRD, symObjAddr: 0x1AB0, symBinAddr: 0x1000140C8, symSize: 0x0 }
  - { offsetInCU: 0x2BC, offset: 0x18262, size: 0x8, addend: 0x0, symName: _tREFI, symObjAddr: 0x1AB8, symBinAddr: 0x1000140D0, symSize: 0x0 }
  - { offsetInCU: 0x2D1, offset: 0x18277, size: 0x8, addend: 0x0, symName: _tREFW, symObjAddr: 0x1AC0, symBinAddr: 0x1000140D8, symSize: 0x0 }
  - { offsetInCU: 0x2E6, offset: 0x1828C, size: 0x8, addend: 0x0, symName: _tBUS, symObjAddr: 0x1AC8, symBinAddr: 0x1000140E0, symSize: 0x0 }
  - { offsetInCU: 0x2FB, offset: 0x182A1, size: 0x8, addend: 0x0, symName: _tALERT, symObjAddr: 0x1AD0, symBinAddr: 0x1000140E8, symSize: 0x0 }
  - { offsetInCU: 0x310, offset: 0x182B6, size: 0x8, addend: 0x0, symName: _DRAM_MAX_TOPEN, symObjAddr: 0x1AD8, symBinAddr: 0x1000140F0, symSize: 0x0 }
  - { offsetInCU: 0x325, offset: 0x182CB, size: 0x8, addend: 0x0, symName: _ENABLE_MOAT, symObjAddr: 0x194A0, symBinAddr: 0x100014178, symSize: 0x0 }
  - { offsetInCU: 0x33A, offset: 0x182E0, size: 0x8, addend: 0x0, symName: _MOAT_LEVEL, symObjAddr: 0x1AE0, symBinAddr: 0x1000140F8, symSize: 0x0 }
  - { offsetInCU: 0x34F, offset: 0x182F5, size: 0x8, addend: 0x0, symName: _REFS_PER_MITIG, symObjAddr: 0x1AE8, symBinAddr: 0x100014100, symSize: 0x0 }
  - { offsetInCU: 0x364, offset: 0x1830A, size: 0x8, addend: 0x0, symName: _RESET_CTR_ON_REF, symObjAddr: 0x194A8, symBinAddr: 0x100014180, symSize: 0x0 }
  - { offsetInCU: 0x379, offset: 0x1831F, size: 0x8, addend: 0x0, symName: _MOAT_ATH, symObjAddr: 0x1AF0, symBinAddr: 0x100014108, symSize: 0x0 }
  - { offsetInCU: 0x38E, offset: 0x18334, size: 0x8, addend: 0x0, symName: _MOAT_ETH, symObjAddr: 0x1AF8, symBinAddr: 0x100014110, symSize: 0x0 }
  - { offsetInCU: 0x3A3, offset: 0x18349, size: 0x8, addend: 0x0, symName: _MEM_RSRV_MB, symObjAddr: 0x194B0, symBinAddr: 0x100014188, symSize: 0x0 }
  - { offsetInCU: 0x3B8, offset: 0x1835E, size: 0x8, addend: 0x0, symName: _RH_THRESHOLD_ACT, symObjAddr: 0x1B00, symBinAddr: 0x100014118, symSize: 0x0 }
  - { offsetInCU: 0x3CD, offset: 0x18373, size: 0x8, addend: 0x0, symName: _OS_NUM_RND_TRIES, symObjAddr: 0x1B08, symBinAddr: 0x100014120, symSize: 0x0 }
  - { offsetInCU: 0x3E2, offset: 0x18388, size: 0x8, addend: 0x0, symName: _RAND_SEED, symObjAddr: 0x1B10, symBinAddr: 0x100014128, symSize: 0x0 }
  - { offsetInCU: 0x3F7, offset: 0x1839D, size: 0x8, addend: 0x0, symName: _cycle, symObjAddr: 0x194B8, symBinAddr: 0x100014190, symSize: 0x0 }
  - { offsetInCU: 0x40C, offset: 0x183B2, size: 0x8, addend: 0x0, symName: _last_printdot_cycle, symObjAddr: 0x194C0, symBinAddr: 0x100014198, symSize: 0x0 }
  - { offsetInCU: 0x421, offset: 0x183C7, size: 0x8, addend: 0x0, symName: _addr_trace_filename, symObjAddr: 0x194C8, symBinAddr: 0x1000141A0, symSize: 0x0 }
  - { offsetInCU: 0x458, offset: 0x183FE, size: 0x8, addend: 0x0, symName: _num_threads, symObjAddr: 0x594C8, symBinAddr: 0x1000541A0, symSize: 0x0 }
  - { offsetInCU: 0x479, offset: 0x1841F, size: 0x8, addend: 0x0, symName: _memsys, symObjAddr: 0x594D0, symBinAddr: 0x1000541A8, symSize: 0x0 }
  - { offsetInCU: 0x4AE, offset: 0x18454, size: 0x8, addend: 0x0, symName: _os, symObjAddr: 0x594D8, symBinAddr: 0x1000541B0, symSize: 0x0 }
  - { offsetInCU: 0x1E9B, offset: 0x19E41, size: 0x8, addend: 0x0, symName: _LLC, symObjAddr: 0x594E0, symBinAddr: 0x1000541B8, symSize: 0x0 }
  - { offsetInCU: 0x1EB5, offset: 0x19E5B, size: 0x8, addend: 0x0, symName: _mcore, symObjAddr: 0x594E8, symBinAddr: 0x1000541C0, symSize: 0x0 }
  - { offsetInCU: 0x3E17, offset: 0x1BDBD, size: 0x8, addend: 0x0, symName: __Z9die_usagev, symObjAddr: 0x0, symBinAddr: 0x10000C9D8, symSize: 0x130 }
  - { offsetInCU: 0x3E30, offset: 0x1BDD6, size: 0x8, addend: 0x0, symName: __Z11die_messagePKc, symObjAddr: 0x130, symBinAddr: 0x10000CB08, symSize: 0x30 }
  - { offsetInCU: 0x3E58, offset: 0x1BDFE, size: 0x8, addend: 0x0, symName: __Z11read_paramsiPPc, symObjAddr: 0x160, symBinAddr: 0x10000CB38, symSize: 0x1330 }
  - { offsetInCU: 0x3ED7, offset: 0x1BE7D, size: 0x8, addend: 0x0, symName: __Z10print_dotsv, symObjAddr: 0x1490, symBinAddr: 0x10000DE68, symSize: 0x1A4 }
  - { offsetInCU: 0x3F29, offset: 0x1BECF, size: 0x8, addend: 0x0, symName: _main, symObjAddr: 0x1634, symBinAddr: 0x10000E00C, symSize: 0x3C0 }
  - { offsetInCU: 0x26, offset: 0x1BF7F, size: 0x8, addend: 0x0, symName: __Z10memsys_newv, symObjAddr: 0x0, symBinAddr: 0x10000E3CC, symSize: 0x74 }
  - { offsetInCU: 0x28BA, offset: 0x1E813, size: 0x8, addend: 0x0, symName: __Z10memsys_newv, symObjAddr: 0x0, symBinAddr: 0x10000E3CC, symSize: 0x74 }
  - { offsetInCU: 0x28E6, offset: 0x1E83F, size: 0x8, addend: 0x0, symName: __Z13memsys_accessP6MemSysyjjyh, symObjAddr: 0x74, symBinAddr: 0x10000E440, symSize: 0x5C }
  - { offsetInCU: 0x2966, offset: 0x1E8BF, size: 0x8, addend: 0x0, symName: __Z12memsys_cycleP6MemSys, symObjAddr: 0xD0, symBinAddr: 0x10000E49C, symSize: 0x28 }
  - { offsetInCU: 0x298E, offset: 0x1E8E7, size: 0x8, addend: 0x0, symName: __Z18memsys_print_stateP6MemSys, symObjAddr: 0xF8, symBinAddr: 0x10000E4C4, symSize: 0x28 }
  - { offsetInCU: 0x29B6, offset: 0x1E90F, size: 0x8, addend: 0x0, symName: __Z18memsys_print_statsP6MemSys, symObjAddr: 0x120, symBinAddr: 0x10000E4EC, symSize: 0x28 }
...
